

Microchip MPLAB XC8 Assembler V2.31 build 20201012212115 
                                                                                               Sun Dec 04 20:10:43 2022

Microchip MPLAB XC8 C Compiler v2.31 (Free license) build 20201012212115 Og1 
     1                           	processor	18F45Q10
     2                           	fnconf	rparam,??,?,0
     3                           	pagewidth 120
     4                           	opt	flic
     5                           	psect	nvCOMRAM,global,class=COMRAM,space=1,delta=1,lowdata,noexec
     6                           	psect	cinit,global,reloc=2,class=CODE,delta=1
     7                           	psect	cstackCOMRAM,global,class=COMRAM,space=1,delta=1,lowdata,noexec
     8                           	psect	text0,global,reloc=2,class=CODE,delta=1
     9                           	psect	text1,global,reloc=2,class=CODE,delta=1
    10                           	psect	text2,global,reloc=2,class=CODE,delta=1
    11                           	psect	text3,global,reloc=2,class=CODE,delta=1
    12                           	psect	text4,global,reloc=2,class=CODE,delta=1
    13                           	psect	text5,global,reloc=2,class=CODE,delta=1
    14                           	psect	text6,global,reloc=2,class=CODE,delta=1
    15                           	psect	text7,global,reloc=2,class=CODE,delta=1
    16                           	psect	text8,global,reloc=2,class=CODE,delta=1
    17                           	psect	text9,global,reloc=2,class=CODE,delta=1
    18                           	psect	text10,global,reloc=2,class=CODE,delta=1
    19                           	psect	text11,global,reloc=2,class=CODE,delta=1
    20                           	psect	text12,global,reloc=2,class=CODE,delta=1
    21                           	psect	text13,global,reloc=2,class=CODE,delta=1
    22                           	psect	text14,global,reloc=2,class=CODE,delta=1
    23                           	psect	text15,global,reloc=2,class=CODE,delta=1
    24                           	psect	text16,global,reloc=2,class=CODE,delta=1
    25                           	psect	text17,global,reloc=2,class=CODE,delta=1
    26                           	psect	intcode,global,reloc=2,class=CODE,delta=1
    27                           	psect	text19,global,reloc=2,class=CODE,delta=1
    28                           	psect	intsave_regs,global,class=BIGRAM,space=1,delta=1,noexec
    29                           	psect	rparam,global,class=COMRAM,space=1,delta=1,noexec
    30                           	psect	temp,global,ovrld,common,class=COMRAM,space=1,delta=1
    31                           	psect	idloc,global,abs,ovrld,class=IDLOC,space=5,delta=1,noexec
    32                           	psect	config,global,abs,ovrld,class=CONFIG,space=4,delta=1,noexec
    33  0000                     
    34                           ; Version 2.40
    35                           ; Generated 08/12/2021 GMT
    36                           ; 
    37                           ; Copyright © 2021, Microchip Technology Inc. and its subsidiaries ("Microchip")
    38                           ; All rights reserved.
    39                           ; 
    40                           ; This software is developed by Microchip Technology Inc. and its subsidiaries ("Microch
      +                          ip").
    41                           ; 
    42                           ; Redistribution and use in source and binary forms, with or without modification, are
    43                           ; permitted provided that the following conditions are met:
    44                           ; 
    45                           ;     1. Redistributions of source code must retain the above copyright notice, this lis
      +                          t of
    46                           ;        conditions and the following disclaimer.
    47                           ; 
    48                           ;     2. Redistributions in binary form must reproduce the above copyright notice, this 
      +                          list
    49                           ;        of conditions and the following disclaimer in the documentation and/or other
    50                           ;        materials provided with the distribution. Publication is not required when
    51                           ;        this file is used in an embedded application.
    52                           ; 
    53                           ;     3. Microchip's name may not be used to endorse or promote products derived from th
      +                          is
    54                           ;        software without specific prior written permission.
    55                           ; 
    56                           ; THIS SOFTWARE IS PROVIDED BY MICROCHIP "AS IS" AND ANY EXPRESS OR IMPLIED WARRANTIES,
    57                           ; INCLUDING, BUT NOT LIMITED TO, THE IMPLIED WARRANTIES OF MERCHANTABILITY AND FITNESS F
      +                          OR
    58                           ; PURPOSE ARE DISCLAIMED.  IN NO EVENT SHALL MICROCHIP BE LIABLE FOR ANY DIRECT, INDIREC
      +                          T,
    59                           ; INCIDENTAL, SPECIAL, EXEMPLARY, OR CONSEQUENTIAL DAMAGES (INCLUDING BUT NOT LIMITED TO
    60                           ; PROCUREMENT OF SUBSTITUTE GOODS OR SERVICES; LOSS OF USE, DATA OR PROFITS; OR BUSINESS
    61                           ; INTERRUPTION) HOWSOEVER CAUSED AND ON ANY THEORY OF LIABILITY, WHETHER IN CONTRACT, ST
      +                          RICT
    62                           ; LIABILITY, OR TORT (INCLUDING NEGLIGENCE OR OTHERWISE) ARISING IN ANY WAY OUT OF THE U
      +                          SE OF
    63                           ; THIS SOFTWARE, EVEN IF ADVISED OF THE POSSIBILITY OF SUCH DAMAGE.
    64                           ; 
    65                           ; 
    66                           ; Code-generator required, PIC18F45Q10 Definitions
    67                           ; 
    68                           ; SFR Addresses
    69  0000                     
    70 ;; Function _IOCAF0_DefaultInterruptHandler is unused but had its address taken
    71  0000                     
    72 ;; Function _IOCAF1_DefaultInterruptHandler is unused but had its address taken
    73  0000                     
    74 ;; Function _IOCAF2_DefaultInterruptHandler is unused but had its address taken
    75  0000                     
    76 ;; Function _IOCAF3_DefaultInterruptHandler is unused but had its address taken
    77  0000                     
    78 ;; Function _IOCAF4_DefaultInterruptHandler is unused but had its address taken
    79  0000                     
    80 ;; Function _IOCAF5_DefaultInterruptHandler is unused but had its address taken
    81  0000                     
    82 ;; Function _IOCCF0_DefaultInterruptHandler is unused but had its address taken
    83  0000                     
    84 ;; Function _IOCCF1_DefaultInterruptHandler is unused but had its address taken
    85  0000                     
    86 ;; Function _IOCEF0_DefaultInterruptHandler is unused but had its address taken
    87  0000                     
    88 ;; Function _IOCEF1_DefaultInterruptHandler is unused but had its address taken
    89  0000                     
    90 ;; Function _IOCEF2_DefaultInterruptHandler is unused but had its address taken
    91  0000                     
    92                           	psect	nvCOMRAM
    93  000001                     __pnvCOMRAM:
    94                           	callstack 0
    95  000001                     _IOCEF2_InterruptHandler:
    96                           	callstack 0
    97  000001                     	ds	2
    98  000003                     _IOCEF1_InterruptHandler:
    99                           	callstack 0
   100  000003                     	ds	2
   101  000005                     _IOCEF0_InterruptHandler:
   102                           	callstack 0
   103  000005                     	ds	2
   104  000007                     _IOCCF1_InterruptHandler:
   105                           	callstack 0
   106  000007                     	ds	2
   107  000009                     _IOCCF0_InterruptHandler:
   108                           	callstack 0
   109  000009                     	ds	2
   110  00000B                     _IOCAF5_InterruptHandler:
   111                           	callstack 0
   112  00000B                     	ds	2
   113  00000D                     _IOCAF4_InterruptHandler:
   114                           	callstack 0
   115  00000D                     	ds	2
   116  00000F                     _IOCAF3_InterruptHandler:
   117                           	callstack 0
   118  00000F                     	ds	2
   119  000011                     _IOCAF2_InterruptHandler:
   120                           	callstack 0
   121  000011                     	ds	2
   122  000013                     _IOCAF1_InterruptHandler:
   123                           	callstack 0
   124  000013                     	ds	2
   125  000015                     _IOCAF0_InterruptHandler:
   126                           	callstack 0
   127  000015                     	ds	2
   128  0000                     _PIE0bits	set	3773
   129  0000                     _PMD5	set	3809
   130  0000                     _PMD4	set	3808
   131  0000                     _PMD3	set	3807
   132  0000                     _PMD2	set	3806
   133  0000                     _PMD1	set	3805
   134  0000                     _PMD0	set	3804
   135  0000                     _OSCTUNE	set	3800
   136  0000                     _OSCFRQ	set	3801
   137  0000                     _OSCEN	set	3799
   138  0000                     _OSCCON3	set	3797
   139  0000                     _OSCCON1	set	3795
   140  0000                     _IOCCFbits_Data	set	3861
   141  0000                     _IOCEFbits_Data	set	3874
   142  0000                     _IOCBFbits_Data	set	3853
   143  0000                     _IOCAFbits_Data	set	3845
   144  0000                     _IOCEPbits	set	3876
   145  0000                     _IOCENbits	set	3875
   146  0000                     _IOCEFbits	set	3874
   147  0000                     _IOCCPbits	set	3863
   148  0000                     _IOCCNbits	set	3862
   149  0000                     _IOCCFbits	set	3861
   150  0000                     _IOCAPbits	set	3847
   151  0000                     _IOCANbits	set	3846
   152  0000                     _IOCAFbits	set	3845
   153  0000                     _INLVLE	set	3877
   154  0000                     _INLVLD	set	3869
   155  0000                     _INLVLC	set	3864
   156  0000                     _INLVLB	set	3856
   157  0000                     _INLVLA	set	3848
   158  0000                     _SLRCONE	set	3878
   159  0000                     _SLRCOND	set	3870
   160  0000                     _SLRCONC	set	3865
   161  0000                     _SLRCONB	set	3857
   162  0000                     _SLRCONA	set	3849
   163  0000                     _ODCOND	set	3871
   164  0000                     _ODCONC	set	3866
   165  0000                     _ODCONB	set	3858
   166  0000                     _ODCONA	set	3850
   167  0000                     _ODCONE	set	3879
   168  0000                     _WPUC	set	3867
   169  0000                     _WPUA	set	3851
   170  0000                     _WPUB	set	3859
   171  0000                     _WPUE	set	3880
   172  0000                     _WPUD	set	3872
   173  0000                     _ANSELA	set	3852
   174  0000                     _ANSELE	set	3881
   175  0000                     _ANSELB	set	3860
   176  0000                     _ANSELC	set	3868
   177  0000                     _ANSELD	set	3873
   178  0000                     _PORTD	set	3983
   179  0000                     _INTCONbits	set	4082
   180  0000                     _TRISD	set	3978
   181  0000                     _TRISC	set	3977
   182  0000                     _TRISB	set	3976
   183  0000                     _TRISA	set	3975
   184  0000                     _TRISE	set	3979
   185  0000                     _LATC	set	3972
   186  0000                     _LATB	set	3971
   187  0000                     _LATA	set	3970
   188  0000                     _LATD	set	3973
   189  0000                     _LATE	set	3974
   190  0000                     _RD2	set	31866
   191                           
   192                           ; #config settings
   193                           
   194                           	psect	cinit
   195  0003E0                     __pcinit:
   196                           	callstack 0
   197  0003E0                     start_initialization:
   198                           	callstack 0
   199  0003E0                     __initialization:
   200                           	callstack 0
   201  0003E0                     end_of_initialization:
   202                           	callstack 0
   203  0003E0                     __end_of__initialization:
   204                           	callstack 0
   205  0003E0  901D               	bcf	int$flags,0,c	;clear compiler interrupt flag (level 1)
   206  0003E2  921D               	bcf	int$flags,1,c	;clear compiler interrupt flag (level 2)
   207  0003E4  0E00               	movlw	low (__Lmediumconst shr (0+16))
   208  0003E6  6EF8               	movwf	tblptru,c
   209  0003E8  0100               	movlb	0
   210  0003EA  EF9E  F001         	goto	_main	;jump to C main() function
   211                           
   212                           	psect	cstackCOMRAM
   213  000017                     __pcstackCOMRAM:
   214                           	callstack 0
   215  000017                     ??_INTERRUPT_InterruptManager:
   216  000017                     
   217                           ; 1 bytes @ 0x0
   218  000017                     	ds	2
   219  000019                     IOCAF0_SetInterruptHandler@InterruptHandler:
   220                           	callstack 0
   221  000019                     IOCAF1_SetInterruptHandler@InterruptHandler:
   222                           	callstack 0
   223  000019                     IOCAF2_SetInterruptHandler@InterruptHandler:
   224                           	callstack 0
   225  000019                     IOCAF3_SetInterruptHandler@InterruptHandler:
   226                           	callstack 0
   227  000019                     IOCAF4_SetInterruptHandler@InterruptHandler:
   228                           	callstack 0
   229  000019                     IOCAF5_SetInterruptHandler@InterruptHandler:
   230                           	callstack 0
   231  000019                     IOCCF0_SetInterruptHandler@InterruptHandler:
   232                           	callstack 0
   233  000019                     IOCCF1_SetInterruptHandler@InterruptHandler:
   234                           	callstack 0
   235  000019                     IOCEF0_SetInterruptHandler@InterruptHandler:
   236                           	callstack 0
   237  000019                     IOCEF1_SetInterruptHandler@InterruptHandler:
   238                           	callstack 0
   239  000019                     IOCEF2_SetInterruptHandler@InterruptHandler:
   240                           	callstack 0
   241                           
   242                           ; 2 bytes @ 0x2
   243  000019                     	ds	2
   244  00001B                     ??_main:
   245                           
   246                           ; 1 bytes @ 0x4
   247  00001B                     	ds	2
   248                           
   249 ;;
   250 ;;Main: autosize = 0, tempsize = 2, incstack = 0, save=0
   251 ;;
   252 ;; *************** function _main *****************
   253 ;; Defined at:
   254 ;;		line 192 in file "main.c"
   255 ;; Parameters:    Size  Location     Type
   256 ;;		None
   257 ;; Auto vars:     Size  Location     Type
   258 ;;		None
   259 ;; Return value:  Size  Location     Type
   260 ;;                  1    wreg      void 
   261 ;; Registers used:
   262 ;;		wreg, status,2, status,0, cstack
   263 ;; Tracked objects:
   264 ;;		On entry : 0/0
   265 ;;		On exit  : 0/0
   266 ;;		Unchanged: 0/0
   267 ;; Data sizes:     COMRAM   BANK0   BANK1   BANK2   BANK3   BANK4   BANK5   BANK6   BANK7
   268 ;;      Params:         0       0       0       0       0       0       0       0       0
   269 ;;      Locals:         0       0       0       0       0       0       0       0       0
   270 ;;      Temps:          2       0       0       0       0       0       0       0       0
   271 ;;      Totals:         2       0       0       0       0       0       0       0       0
   272 ;;Total ram usage:        2 bytes
   273 ;; Hardware stack levels required when called:    5
   274 ;; This function calls:
   275 ;;		_INTERRUPT_Initialize
   276 ;;		_IOC_Initialize
   277 ;;		_SYSTEM_Initialize
   278 ;; This function is called by:
   279 ;;		Startup code after reset
   280 ;; This function uses a non-reentrant model
   281 ;;
   282                           
   283                           	psect	text0
   284  00033C                     __ptext0:
   285                           	callstack 0
   286  00033C                     _main:
   287                           	callstack 26
   288  00033C                     
   289                           ;main.c: 195:     SYSTEM_Initialize();
   290  00033C  ECF7  F001         	call	_SYSTEM_Initialize	;wreg free
   291  000340                     
   292                           ;main.c: 196:     IOC_Initialize();
   293  000340  EC39  F002         	call	_IOC_Initialize	;wreg free
   294  000344                     
   295                           ;main.c: 197:     INTERRUPT_Initialize();
   296  000344  EC35  F002         	call	_INTERRUPT_Initialize	;wreg free
   297  000348                     l1670:
   298                           
   299                           ;main.c: 216:     {;main.c: 217:         PORTD &= 0b11111101;
   300  000348  928F               	bcf	143,1,c	;volatile
   301  00034A                     
   302                           ;main.c: 221:         __nop();
   303  00034A  F000               	nop	
   304  00034C                     
   305                           ;main.c: 222:         __nop();
   306  00034C  F000               	nop	
   307  00034E                     
   308                           ;main.c: 223:         __nop();
   309  00034E  F000               	nop	
   310  000350                     
   311                           ;main.c: 224:         __nop();
   312  000350  F000               	nop	
   313  000352                     
   314                           ;main.c: 225:         PORTD |= 0b00000010;
   315  000352  828F               	bsf	143,1,c	;volatile
   316  000354                     
   317                           ;main.c: 228:         __nop();
   318  000354  F000               	nop	
   319  000356                     
   320                           ;main.c: 229:         __nop();
   321  000356  F000               	nop	
   322  000358                     
   323                           ;main.c: 230:         __nop();
   324  000358  F000               	nop	
   325  00035A                     
   326                           ;main.c: 231:         __nop();
   327  00035A  F000               	nop	
   328  00035C                     
   329                           ;main.c: 232:         PORTD &= 0b11111101;
   330  00035C  928F               	bcf	143,1,c	;volatile
   331  00035E                     
   332                           ;main.c: 235:         _delay((unsigned long)((100)*(64000000/4000.0)));
   333  00035E  0E09               	movlw	9
   334  000360  6E1C               	movwf	(??_main+1)^0,c
   335  000362  0E1E               	movlw	30
   336  000364  6E1B               	movwf	??_main^0,c
   337  000366  0EE4               	movlw	228
   338  000368                     u507:
   339  000368  2EE8               	decfsz	wreg,f,c
   340  00036A  D7FE               	bra	u507
   341  00036C  2E1B               	decfsz	??_main^0,f,c
   342  00036E  D7FC               	bra	u507
   343  000370  2E1C               	decfsz	(??_main+1)^0,f,c
   344  000372  D7FA               	bra	u507
   345  000374  D000               	nop2	
   346  000376                     
   347                           ;main.c: 236:         PORTD |= 0b00000010;
   348  000376  828F               	bsf	143,1,c	;volatile
   349  000378                     
   350                           ;main.c: 239:         _delay((unsigned long)((100)*(64000000/4000.0)));
   351  000378  0E09               	movlw	9
   352  00037A  6E1C               	movwf	(??_main+1)^0,c
   353  00037C  0E1E               	movlw	30
   354  00037E  6E1B               	movwf	??_main^0,c
   355  000380  0EE4               	movlw	228
   356  000382                     u517:
   357  000382  2EE8               	decfsz	wreg,f,c
   358  000384  D7FE               	bra	u517
   359  000386  2E1B               	decfsz	??_main^0,f,c
   360  000388  D7FC               	bra	u517
   361  00038A  2E1C               	decfsz	(??_main+1)^0,f,c
   362  00038C  D7FA               	bra	u517
   363  00038E  D000               	nop2	
   364  000390  EFA4  F001         	goto	l1670
   365  000394  EFFD  F000         	goto	start
   366  000398                     __end_of_main:
   367                           	callstack 0
   368                           
   369 ;; *************** function _SYSTEM_Initialize *****************
   370 ;; Defined at:
   371 ;;		line 50 in file "mcc_generated_files/mcc.c"
   372 ;; Parameters:    Size  Location     Type
   373 ;;		None
   374 ;; Auto vars:     Size  Location     Type
   375 ;;		None
   376 ;; Return value:  Size  Location     Type
   377 ;;                  1    wreg      void 
   378 ;; Registers used:
   379 ;;		wreg, status,2, status,0, cstack
   380 ;; Tracked objects:
   381 ;;		On entry : 0/0
   382 ;;		On exit  : 0/0
   383 ;;		Unchanged: 0/0
   384 ;; Data sizes:     COMRAM   BANK0   BANK1   BANK2   BANK3   BANK4   BANK5   BANK6   BANK7
   385 ;;      Params:         0       0       0       0       0       0       0       0       0
   386 ;;      Locals:         0       0       0       0       0       0       0       0       0
   387 ;;      Temps:          0       0       0       0       0       0       0       0       0
   388 ;;      Totals:         0       0       0       0       0       0       0       0       0
   389 ;;Total ram usage:        0 bytes
   390 ;; Hardware stack levels used:    1
   391 ;; Hardware stack levels required when called:    4
   392 ;; This function calls:
   393 ;;		_OSCILLATOR_Initialize
   394 ;;		_PIN_MANAGER_Initialize
   395 ;;		_PMD_Initialize
   396 ;; This function is called by:
   397 ;;		_main
   398 ;; This function uses a non-reentrant model
   399 ;;
   400                           
   401                           	psect	text1
   402  0003EE                     __ptext1:
   403                           	callstack 0
   404  0003EE                     _SYSTEM_Initialize:
   405                           	callstack 26
   406  0003EE                     
   407                           ;mcc_generated_files/mcc.c: 52:     PMD_Initialize();
   408  0003EE  ECCC  F001         	call	_PMD_Initialize	;wreg free
   409  0003F2                     
   410                           ;mcc_generated_files/mcc.c: 53:     PIN_MANAGER_Initialize();
   411  0003F2  ECFF  F000         	call	_PIN_MANAGER_Initialize	;wreg free
   412  0003F6                     
   413                           ;mcc_generated_files/mcc.c: 54:     OSCILLATOR_Initialize();
   414  0003F6  ECDA  F001         	call	_OSCILLATOR_Initialize	;wreg free
   415  0003FA  0012               	return		;funcret
   416  0003FC                     __end_of_SYSTEM_Initialize:
   417                           	callstack 0
   418                           
   419 ;; *************** function _PMD_Initialize *****************
   420 ;; Defined at:
   421 ;;		line 71 in file "mcc_generated_files/mcc.c"
   422 ;; Parameters:    Size  Location     Type
   423 ;;		None
   424 ;; Auto vars:     Size  Location     Type
   425 ;;		None
   426 ;; Return value:  Size  Location     Type
   427 ;;                  1    wreg      void 
   428 ;; Registers used:
   429 ;;		wreg, status,2
   430 ;; Tracked objects:
   431 ;;		On entry : 0/0
   432 ;;		On exit  : 0/0
   433 ;;		Unchanged: 0/0
   434 ;; Data sizes:     COMRAM   BANK0   BANK1   BANK2   BANK3   BANK4   BANK5   BANK6   BANK7
   435 ;;      Params:         0       0       0       0       0       0       0       0       0
   436 ;;      Locals:         0       0       0       0       0       0       0       0       0
   437 ;;      Temps:          0       0       0       0       0       0       0       0       0
   438 ;;      Totals:         0       0       0       0       0       0       0       0       0
   439 ;;Total ram usage:        0 bytes
   440 ;; Hardware stack levels used:    1
   441 ;; Hardware stack levels required when called:    2
   442 ;; This function calls:
   443 ;;		Nothing
   444 ;; This function is called by:
   445 ;;		_SYSTEM_Initialize
   446 ;; This function uses a non-reentrant model
   447 ;;
   448                           
   449                           	psect	text2
   450  000398                     __ptext2:
   451                           	callstack 0
   452  000398                     _PMD_Initialize:
   453                           	callstack 27
   454  000398                     
   455                           ;mcc_generated_files/mcc.c: 74:     PMD0 = 0x00;
   456  000398  0E00               	movlw	0
   457  00039A  010E               	movlb	14	; () banked
   458  00039C  6FDC               	movwf	220,b	;volatile
   459                           
   460                           ;mcc_generated_files/mcc.c: 76:     PMD1 = 0x00;
   461  00039E  0E00               	movlw	0
   462  0003A0  6FDD               	movwf	221,b	;volatile
   463                           
   464                           ;mcc_generated_files/mcc.c: 78:     PMD2 = 0x00;
   465  0003A2  0E00               	movlw	0
   466  0003A4  6FDE               	movwf	222,b	;volatile
   467                           
   468                           ;mcc_generated_files/mcc.c: 80:     PMD3 = 0x00;
   469  0003A6  0E00               	movlw	0
   470  0003A8  6FDF               	movwf	223,b	;volatile
   471                           
   472                           ;mcc_generated_files/mcc.c: 82:     PMD4 = 0x00;
   473  0003AA  0E00               	movlw	0
   474  0003AC  6FE0               	movwf	224,b	;volatile
   475                           
   476                           ;mcc_generated_files/mcc.c: 84:     PMD5 = 0x00;
   477  0003AE  0E00               	movlw	0
   478  0003B0  6FE1               	movwf	225,b	;volatile
   479  0003B2                     
   480                           ; BSR set to: 14
   481  0003B2  0012               	return		;funcret
   482  0003B4                     __end_of_PMD_Initialize:
   483                           	callstack 0
   484                           
   485 ;; *************** function _PIN_MANAGER_Initialize *****************
   486 ;; Defined at:
   487 ;;		line 67 in file "mcc_generated_files/pin_manager.c"
   488 ;; Parameters:    Size  Location     Type
   489 ;;		None
   490 ;; Auto vars:     Size  Location     Type
   491 ;;		None
   492 ;; Return value:  Size  Location     Type
   493 ;;                  1    wreg      void 
   494 ;; Registers used:
   495 ;;		wreg, status,2, status,0, cstack
   496 ;; Tracked objects:
   497 ;;		On entry : 0/0
   498 ;;		On exit  : 0/0
   499 ;;		Unchanged: 0/0
   500 ;; Data sizes:     COMRAM   BANK0   BANK1   BANK2   BANK3   BANK4   BANK5   BANK6   BANK7
   501 ;;      Params:         0       0       0       0       0       0       0       0       0
   502 ;;      Locals:         0       0       0       0       0       0       0       0       0
   503 ;;      Temps:          0       0       0       0       0       0       0       0       0
   504 ;;      Totals:         0       0       0       0       0       0       0       0       0
   505 ;;Total ram usage:        0 bytes
   506 ;; Hardware stack levels used:    1
   507 ;; Hardware stack levels required when called:    3
   508 ;; This function calls:
   509 ;;		_IOCAF0_SetInterruptHandler
   510 ;;		_IOCAF1_SetInterruptHandler
   511 ;;		_IOCAF2_SetInterruptHandler
   512 ;;		_IOCAF3_SetInterruptHandler
   513 ;;		_IOCAF4_SetInterruptHandler
   514 ;;		_IOCAF5_SetInterruptHandler
   515 ;;		_IOCCF0_SetInterruptHandler
   516 ;;		_IOCCF1_SetInterruptHandler
   517 ;;		_IOCEF0_SetInterruptHandler
   518 ;;		_IOCEF1_SetInterruptHandler
   519 ;;		_IOCEF2_SetInterruptHandler
   520 ;; This function is called by:
   521 ;;		_SYSTEM_Initialize
   522 ;; This function uses a non-reentrant model
   523 ;;
   524                           
   525                           	psect	text3
   526  0001FE                     __ptext3:
   527                           	callstack 0
   528  0001FE                     _PIN_MANAGER_Initialize:
   529                           	callstack 26
   530  0001FE                     
   531                           ;mcc_generated_files/pin_manager.c: 72:     LATE = 0x00;
   532  0001FE  0E00               	movlw	0
   533  000200  6E86               	movwf	134,c	;volatile
   534                           
   535                           ;mcc_generated_files/pin_manager.c: 73:     LATD = 0x0F;
   536  000202  0E0F               	movlw	15
   537  000204  6E85               	movwf	133,c	;volatile
   538                           
   539                           ;mcc_generated_files/pin_manager.c: 74:     LATA = 0x00;
   540  000206  0E00               	movlw	0
   541  000208  6E82               	movwf	130,c	;volatile
   542                           
   543                           ;mcc_generated_files/pin_manager.c: 75:     LATB = 0x00;
   544  00020A  0E00               	movlw	0
   545  00020C  6E83               	movwf	131,c	;volatile
   546                           
   547                           ;mcc_generated_files/pin_manager.c: 76:     LATC = 0x00;
   548  00020E  0E00               	movlw	0
   549  000210  6E84               	movwf	132,c	;volatile
   550                           
   551                           ;mcc_generated_files/pin_manager.c: 81:     TRISE = 0x07;
   552  000212  0E07               	movlw	7
   553  000214  6E8B               	movwf	139,c	;volatile
   554  000216                     
   555                           ;mcc_generated_files/pin_manager.c: 82:     TRISA = 0xFF;
   556  000216  6887               	setf	135,c	;volatile
   557  000218                     
   558                           ;mcc_generated_files/pin_manager.c: 83:     TRISB = 0xFF;
   559  000218  6888               	setf	136,c	;volatile
   560  00021A                     
   561                           ;mcc_generated_files/pin_manager.c: 84:     TRISC = 0xFF;
   562  00021A  6889               	setf	137,c	;volatile
   563                           
   564                           ;mcc_generated_files/pin_manager.c: 85:     TRISD = 0xF0;
   565  00021C  0EF0               	movlw	240
   566  00021E  6E8A               	movwf	138,c	;volatile
   567                           
   568                           ;mcc_generated_files/pin_manager.c: 90:     ANSELD = 0xF0;
   569  000220  0EF0               	movlw	240
   570  000222  010F               	movlb	15	; () banked
   571  000224  6F21               	movwf	33,b	;volatile
   572                           
   573                           ;mcc_generated_files/pin_manager.c: 91:     ANSELC = 0xFC;
   574  000226  0EFC               	movlw	252
   575  000228  6F1C               	movwf	28,b	;volatile
   576  00022A                     
   577                           ; BSR set to: 15
   578                           ;mcc_generated_files/pin_manager.c: 92:     ANSELB = 0xFF;
   579  00022A  6914               	setf	20,b	;volatile
   580                           
   581                           ;mcc_generated_files/pin_manager.c: 93:     ANSELE = 0x00;
   582  00022C  0E00               	movlw	0
   583  00022E  6F29               	movwf	41,b	;volatile
   584                           
   585                           ;mcc_generated_files/pin_manager.c: 94:     ANSELA = 0xC0;
   586  000230  0EC0               	movlw	192
   587  000232  6F0C               	movwf	12,b	;volatile
   588                           
   589                           ;mcc_generated_files/pin_manager.c: 99:     WPUD = 0x00;
   590  000234  0E00               	movlw	0
   591  000236  6F20               	movwf	32,b	;volatile
   592                           
   593                           ;mcc_generated_files/pin_manager.c: 100:     WPUE = 0x00;
   594  000238  0E00               	movlw	0
   595  00023A  6F28               	movwf	40,b	;volatile
   596                           
   597                           ;mcc_generated_files/pin_manager.c: 101:     WPUB = 0x00;
   598  00023C  0E00               	movlw	0
   599  00023E  6F13               	movwf	19,b	;volatile
   600                           
   601                           ;mcc_generated_files/pin_manager.c: 102:     WPUA = 0x00;
   602  000240  0E00               	movlw	0
   603  000242  6F0B               	movwf	11,b	;volatile
   604                           
   605                           ;mcc_generated_files/pin_manager.c: 103:     WPUC = 0x00;
   606  000244  0E00               	movlw	0
   607  000246  6F1B               	movwf	27,b	;volatile
   608                           
   609                           ;mcc_generated_files/pin_manager.c: 108:     ODCONE = 0x00;
   610  000248  0E00               	movlw	0
   611  00024A  6F27               	movwf	39,b	;volatile
   612                           
   613                           ;mcc_generated_files/pin_manager.c: 109:     ODCONA = 0x00;
   614  00024C  0E00               	movlw	0
   615  00024E  6F0A               	movwf	10,b	;volatile
   616                           
   617                           ;mcc_generated_files/pin_manager.c: 110:     ODCONB = 0x00;
   618  000250  0E00               	movlw	0
   619  000252  6F12               	movwf	18,b	;volatile
   620                           
   621                           ;mcc_generated_files/pin_manager.c: 111:     ODCONC = 0x00;
   622  000254  0E00               	movlw	0
   623  000256  6F1A               	movwf	26,b	;volatile
   624                           
   625                           ;mcc_generated_files/pin_manager.c: 112:     ODCOND = 0x00;
   626  000258  0E00               	movlw	0
   627  00025A  6F1F               	movwf	31,b	;volatile
   628  00025C                     
   629                           ; BSR set to: 15
   630                           ;mcc_generated_files/pin_manager.c: 117:     SLRCONA = 0xFF;
   631  00025C  6909               	setf	9,b	;volatile
   632  00025E                     
   633                           ; BSR set to: 15
   634                           ;mcc_generated_files/pin_manager.c: 118:     SLRCONB = 0xFF;
   635  00025E  6911               	setf	17,b	;volatile
   636  000260                     
   637                           ; BSR set to: 15
   638                           ;mcc_generated_files/pin_manager.c: 119:     SLRCONC = 0xFF;
   639  000260  6919               	setf	25,b	;volatile
   640  000262                     
   641                           ; BSR set to: 15
   642                           ;mcc_generated_files/pin_manager.c: 120:     SLRCOND = 0xFF;
   643  000262  691E               	setf	30,b	;volatile
   644                           
   645                           ;mcc_generated_files/pin_manager.c: 121:     SLRCONE = 0x07;
   646  000264  0E07               	movlw	7
   647  000266  6F26               	movwf	38,b	;volatile
   648  000268                     
   649                           ; BSR set to: 15
   650                           ;mcc_generated_files/pin_manager.c: 126:     INLVLA = 0xFF;
   651  000268  6908               	setf	8,b	;volatile
   652  00026A                     
   653                           ; BSR set to: 15
   654                           ;mcc_generated_files/pin_manager.c: 127:     INLVLB = 0xFF;
   655  00026A  6910               	setf	16,b	;volatile
   656  00026C                     
   657                           ; BSR set to: 15
   658                           ;mcc_generated_files/pin_manager.c: 128:     INLVLC = 0xFF;
   659  00026C  6918               	setf	24,b	;volatile
   660  00026E                     
   661                           ; BSR set to: 15
   662                           ;mcc_generated_files/pin_manager.c: 129:     INLVLD = 0xFF;
   663  00026E  691D               	setf	29,b	;volatile
   664                           
   665                           ;mcc_generated_files/pin_manager.c: 130:     INLVLE = 0x0F;
   666  000270  0E0F               	movlw	15
   667  000272  6F25               	movwf	37,b	;volatile
   668  000274                     
   669                           ; BSR set to: 15
   670                           ;mcc_generated_files/pin_manager.c: 137:     IOCAFbits.IOCAF0 = 0;
   671  000274  9105               	bcf	5,0,b	;volatile
   672  000276                     
   673                           ; BSR set to: 15
   674                           ;mcc_generated_files/pin_manager.c: 139:     IOCAFbits.IOCAF1 = 0;
   675  000276  9305               	bcf	5,1,b	;volatile
   676  000278                     
   677                           ; BSR set to: 15
   678                           ;mcc_generated_files/pin_manager.c: 141:     IOCAFbits.IOCAF2 = 0;
   679  000278  9505               	bcf	5,2,b	;volatile
   680  00027A                     
   681                           ; BSR set to: 15
   682                           ;mcc_generated_files/pin_manager.c: 143:     IOCAFbits.IOCAF3 = 0;
   683  00027A  9705               	bcf	5,3,b	;volatile
   684  00027C                     
   685                           ; BSR set to: 15
   686                           ;mcc_generated_files/pin_manager.c: 145:     IOCAFbits.IOCAF4 = 0;
   687  00027C  9905               	bcf	5,4,b	;volatile
   688  00027E                     
   689                           ; BSR set to: 15
   690                           ;mcc_generated_files/pin_manager.c: 147:     IOCAFbits.IOCAF5 = 0;
   691  00027E  9B05               	bcf	5,5,b	;volatile
   692  000280                     
   693                           ; BSR set to: 15
   694                           ;mcc_generated_files/pin_manager.c: 149:     IOCANbits.IOCAN0 = 1;
   695  000280  8106               	bsf	6,0,b	;volatile
   696  000282                     
   697                           ; BSR set to: 15
   698                           ;mcc_generated_files/pin_manager.c: 151:     IOCANbits.IOCAN1 = 1;
   699  000282  8306               	bsf	6,1,b	;volatile
   700  000284                     
   701                           ; BSR set to: 15
   702                           ;mcc_generated_files/pin_manager.c: 153:     IOCANbits.IOCAN2 = 1;
   703  000284  8506               	bsf	6,2,b	;volatile
   704  000286                     
   705                           ; BSR set to: 15
   706                           ;mcc_generated_files/pin_manager.c: 155:     IOCANbits.IOCAN3 = 1;
   707  000286  8706               	bsf	6,3,b	;volatile
   708  000288                     
   709                           ; BSR set to: 15
   710                           ;mcc_generated_files/pin_manager.c: 157:     IOCANbits.IOCAN4 = 1;
   711  000288  8906               	bsf	6,4,b	;volatile
   712  00028A                     
   713                           ; BSR set to: 15
   714                           ;mcc_generated_files/pin_manager.c: 159:     IOCANbits.IOCAN5 = 1;
   715  00028A  8B06               	bsf	6,5,b	;volatile
   716  00028C                     
   717                           ; BSR set to: 15
   718                           ;mcc_generated_files/pin_manager.c: 161:     IOCAPbits.IOCAP0 = 1;
   719  00028C  8107               	bsf	7,0,b	;volatile
   720  00028E                     
   721                           ; BSR set to: 15
   722                           ;mcc_generated_files/pin_manager.c: 163:     IOCAPbits.IOCAP1 = 1;
   723  00028E  8307               	bsf	7,1,b	;volatile
   724  000290                     
   725                           ; BSR set to: 15
   726                           ;mcc_generated_files/pin_manager.c: 165:     IOCAPbits.IOCAP2 = 1;
   727  000290  8507               	bsf	7,2,b	;volatile
   728  000292                     
   729                           ; BSR set to: 15
   730                           ;mcc_generated_files/pin_manager.c: 167:     IOCAPbits.IOCAP3 = 1;
   731  000292  8707               	bsf	7,3,b	;volatile
   732  000294                     
   733                           ; BSR set to: 15
   734                           ;mcc_generated_files/pin_manager.c: 169:     IOCAPbits.IOCAP4 = 1;
   735  000294  8907               	bsf	7,4,b	;volatile
   736  000296                     
   737                           ; BSR set to: 15
   738                           ;mcc_generated_files/pin_manager.c: 171:     IOCAPbits.IOCAP5 = 1;
   739  000296  8B07               	bsf	7,5,b	;volatile
   740  000298                     
   741                           ; BSR set to: 15
   742                           ;mcc_generated_files/pin_manager.c: 173:     IOCCFbits.IOCCF0 = 0;
   743  000298  9115               	bcf	21,0,b	;volatile
   744  00029A                     
   745                           ; BSR set to: 15
   746                           ;mcc_generated_files/pin_manager.c: 175:     IOCCFbits.IOCCF1 = 0;
   747  00029A  9315               	bcf	21,1,b	;volatile
   748  00029C                     
   749                           ; BSR set to: 15
   750                           ;mcc_generated_files/pin_manager.c: 177:     IOCCNbits.IOCCN0 = 1;
   751  00029C  8116               	bsf	22,0,b	;volatile
   752  00029E                     
   753                           ; BSR set to: 15
   754                           ;mcc_generated_files/pin_manager.c: 179:     IOCCNbits.IOCCN1 = 1;
   755  00029E  8316               	bsf	22,1,b	;volatile
   756  0002A0                     
   757                           ; BSR set to: 15
   758                           ;mcc_generated_files/pin_manager.c: 181:     IOCCPbits.IOCCP0 = 1;
   759  0002A0  8117               	bsf	23,0,b	;volatile
   760  0002A2                     
   761                           ; BSR set to: 15
   762                           ;mcc_generated_files/pin_manager.c: 183:     IOCCPbits.IOCCP1 = 1;
   763  0002A2  8317               	bsf	23,1,b	;volatile
   764  0002A4                     
   765                           ; BSR set to: 15
   766                           ;mcc_generated_files/pin_manager.c: 185:     IOCEFbits.IOCEF0 = 0;
   767  0002A4  9122               	bcf	34,0,b	;volatile
   768  0002A6                     
   769                           ; BSR set to: 15
   770                           ;mcc_generated_files/pin_manager.c: 187:     IOCEFbits.IOCEF1 = 0;
   771  0002A6  9322               	bcf	34,1,b	;volatile
   772  0002A8                     
   773                           ; BSR set to: 15
   774                           ;mcc_generated_files/pin_manager.c: 189:     IOCEFbits.IOCEF2 = 0;
   775  0002A8  9522               	bcf	34,2,b	;volatile
   776  0002AA                     
   777                           ; BSR set to: 15
   778                           ;mcc_generated_files/pin_manager.c: 191:     IOCENbits.IOCEN0 = 1;
   779  0002AA  8123               	bsf	35,0,b	;volatile
   780  0002AC                     
   781                           ; BSR set to: 15
   782                           ;mcc_generated_files/pin_manager.c: 193:     IOCENbits.IOCEN1 = 1;
   783  0002AC  8323               	bsf	35,1,b	;volatile
   784  0002AE                     
   785                           ; BSR set to: 15
   786                           ;mcc_generated_files/pin_manager.c: 195:     IOCENbits.IOCEN2 = 1;
   787  0002AE  8523               	bsf	35,2,b	;volatile
   788  0002B0                     
   789                           ; BSR set to: 15
   790                           ;mcc_generated_files/pin_manager.c: 197:     IOCEPbits.IOCEP0 = 1;
   791  0002B0  8124               	bsf	36,0,b	;volatile
   792  0002B2                     
   793                           ; BSR set to: 15
   794                           ;mcc_generated_files/pin_manager.c: 199:     IOCEPbits.IOCEP1 = 1;
   795  0002B2  8324               	bsf	36,1,b	;volatile
   796  0002B4                     
   797                           ; BSR set to: 15
   798                           ;mcc_generated_files/pin_manager.c: 201:     IOCEPbits.IOCEP2 = 1;
   799  0002B4  8524               	bsf	36,2,b	;volatile
   800  0002B6                     
   801                           ; BSR set to: 15
   802                           ;mcc_generated_files/pin_manager.c: 206:     IOCAF0_SetInterruptHandler(IOCAF0_DefaultIn
      +                          terruptHandler);
   803  0002B6  0E00               	movlw	0
   804  0002B8  6E19               	movwf	IOCAF0_SetInterruptHandler@InterruptHandler^0,c
   805  0002BA  0E00               	movlw	0
   806  0002BC  6E1A               	movwf	(IOCAF0_SetInterruptHandler@InterruptHandler+1)^0,c
   807  0002BE  EC30  F002         	call	_IOCAF0_SetInterruptHandler	;wreg free
   808  0002C2                     
   809                           ;mcc_generated_files/pin_manager.c: 207:     IOCAF1_SetInterruptHandler(IOCAF1_DefaultIn
      +                          terruptHandler);
   810  0002C2  0E00               	movlw	0
   811  0002C4  6E19               	movwf	IOCAF1_SetInterruptHandler@InterruptHandler^0,c
   812  0002C6  0E00               	movlw	0
   813  0002C8  6E1A               	movwf	(IOCAF1_SetInterruptHandler@InterruptHandler+1)^0,c
   814  0002CA  EC2B  F002         	call	_IOCAF1_SetInterruptHandler	;wreg free
   815  0002CE                     
   816                           ;mcc_generated_files/pin_manager.c: 208:     IOCAF2_SetInterruptHandler(IOCAF2_DefaultIn
      +                          terruptHandler);
   817  0002CE  0E00               	movlw	0
   818  0002D0  6E19               	movwf	IOCAF2_SetInterruptHandler@InterruptHandler^0,c
   819  0002D2  0E00               	movlw	0
   820  0002D4  6E1A               	movwf	(IOCAF2_SetInterruptHandler@InterruptHandler+1)^0,c
   821  0002D6  EC26  F002         	call	_IOCAF2_SetInterruptHandler	;wreg free
   822  0002DA                     
   823                           ;mcc_generated_files/pin_manager.c: 209:     IOCAF3_SetInterruptHandler(IOCAF3_DefaultIn
      +                          terruptHandler);
   824  0002DA  0E00               	movlw	0
   825  0002DC  6E19               	movwf	IOCAF3_SetInterruptHandler@InterruptHandler^0,c
   826  0002DE  0E00               	movlw	0
   827  0002E0  6E1A               	movwf	(IOCAF3_SetInterruptHandler@InterruptHandler+1)^0,c
   828  0002E2  EC21  F002         	call	_IOCAF3_SetInterruptHandler	;wreg free
   829  0002E6                     
   830                           ;mcc_generated_files/pin_manager.c: 210:     IOCAF4_SetInterruptHandler(IOCAF4_DefaultIn
      +                          terruptHandler);
   831  0002E6  0E00               	movlw	0
   832  0002E8  6E19               	movwf	IOCAF4_SetInterruptHandler@InterruptHandler^0,c
   833  0002EA  0E00               	movlw	0
   834  0002EC  6E1A               	movwf	(IOCAF4_SetInterruptHandler@InterruptHandler+1)^0,c
   835  0002EE  EC1C  F002         	call	_IOCAF4_SetInterruptHandler	;wreg free
   836  0002F2                     
   837                           ;mcc_generated_files/pin_manager.c: 211:     IOCAF5_SetInterruptHandler(IOCAF5_DefaultIn
      +                          terruptHandler);
   838  0002F2  0E00               	movlw	0
   839  0002F4  6E19               	movwf	IOCAF5_SetInterruptHandler@InterruptHandler^0,c
   840  0002F6  0E00               	movlw	0
   841  0002F8  6E1A               	movwf	(IOCAF5_SetInterruptHandler@InterruptHandler+1)^0,c
   842  0002FA  EC17  F002         	call	_IOCAF5_SetInterruptHandler	;wreg free
   843  0002FE                     
   844                           ;mcc_generated_files/pin_manager.c: 212:     IOCCF0_SetInterruptHandler(IOCCF0_DefaultIn
      +                          terruptHandler);
   845  0002FE  0E00               	movlw	0
   846  000300  6E19               	movwf	IOCCF0_SetInterruptHandler@InterruptHandler^0,c
   847  000302  0E00               	movlw	0
   848  000304  6E1A               	movwf	(IOCCF0_SetInterruptHandler@InterruptHandler+1)^0,c
   849  000306  EC12  F002         	call	_IOCCF0_SetInterruptHandler	;wreg free
   850  00030A                     
   851                           ;mcc_generated_files/pin_manager.c: 213:     IOCCF1_SetInterruptHandler(IOCCF1_DefaultIn
      +                          terruptHandler);
   852  00030A  0E00               	movlw	0
   853  00030C  6E19               	movwf	IOCCF1_SetInterruptHandler@InterruptHandler^0,c
   854  00030E  0E00               	movlw	0
   855  000310  6E1A               	movwf	(IOCCF1_SetInterruptHandler@InterruptHandler+1)^0,c
   856  000312  EC0D  F002         	call	_IOCCF1_SetInterruptHandler	;wreg free
   857  000316                     
   858                           ;mcc_generated_files/pin_manager.c: 214:     IOCEF0_SetInterruptHandler(IOCEF0_DefaultIn
      +                          terruptHandler);
   859  000316  0E00               	movlw	0
   860  000318  6E19               	movwf	IOCEF0_SetInterruptHandler@InterruptHandler^0,c
   861  00031A  0E00               	movlw	0
   862  00031C  6E1A               	movwf	(IOCEF0_SetInterruptHandler@InterruptHandler+1)^0,c
   863  00031E  EC08  F002         	call	_IOCEF0_SetInterruptHandler	;wreg free
   864  000322                     
   865                           ;mcc_generated_files/pin_manager.c: 215:     IOCEF1_SetInterruptHandler(IOCEF1_DefaultIn
      +                          terruptHandler);
   866  000322  0E00               	movlw	0
   867  000324  6E19               	movwf	IOCEF1_SetInterruptHandler@InterruptHandler^0,c
   868  000326  0E00               	movlw	0
   869  000328  6E1A               	movwf	(IOCEF1_SetInterruptHandler@InterruptHandler+1)^0,c
   870  00032A  EC03  F002         	call	_IOCEF1_SetInterruptHandler	;wreg free
   871  00032E                     
   872                           ;mcc_generated_files/pin_manager.c: 216:     IOCEF2_SetInterruptHandler(IOCEF2_DefaultIn
      +                          terruptHandler);
   873  00032E  0E00               	movlw	0
   874  000330  6E19               	movwf	IOCEF2_SetInterruptHandler@InterruptHandler^0,c
   875  000332  0E00               	movlw	0
   876  000334  6E1A               	movwf	(IOCEF2_SetInterruptHandler@InterruptHandler+1)^0,c
   877  000336  ECFE  F001         	call	_IOCEF2_SetInterruptHandler	;wreg free
   878  00033A  0012               	return		;funcret
   879  00033C                     __end_of_PIN_MANAGER_Initialize:
   880                           	callstack 0
   881                           
   882 ;; *************** function _IOCEF2_SetInterruptHandler *****************
   883 ;; Defined at:
   884 ;;		line 598 in file "mcc_generated_files/pin_manager.c"
   885 ;; Parameters:    Size  Location     Type
   886 ;;  InterruptHan    2    2[COMRAM] PTR FTN()void 
   887 ;;		 -> IOCEF2_DefaultInterruptHandler(1), 
   888 ;; Auto vars:     Size  Location     Type
   889 ;;		None
   890 ;; Return value:  Size  Location     Type
   891 ;;                  1    wreg      void 
   892 ;; Registers used:
   893 ;;		wreg, status,2, status,0
   894 ;; Tracked objects:
   895 ;;		On entry : 0/0
   896 ;;		On exit  : 0/0
   897 ;;		Unchanged: 0/0
   898 ;; Data sizes:     COMRAM   BANK0   BANK1   BANK2   BANK3   BANK4   BANK5   BANK6   BANK7
   899 ;;      Params:         2       0       0       0       0       0       0       0       0
   900 ;;      Locals:         0       0       0       0       0       0       0       0       0
   901 ;;      Temps:          0       0       0       0       0       0       0       0       0
   902 ;;      Totals:         2       0       0       0       0       0       0       0       0
   903 ;;Total ram usage:        2 bytes
   904 ;; Hardware stack levels used:    1
   905 ;; Hardware stack levels required when called:    2
   906 ;; This function calls:
   907 ;;		Nothing
   908 ;; This function is called by:
   909 ;;		_PIN_MANAGER_Initialize
   910 ;; This function uses a non-reentrant model
   911 ;;
   912                           
   913                           	psect	text4
   914  0003FC                     __ptext4:
   915                           	callstack 0
   916  0003FC                     _IOCEF2_SetInterruptHandler:
   917                           	callstack 26
   918  0003FC                     
   919                           ;mcc_generated_files/pin_manager.c: 599:     IOCEF2_InterruptHandler = InterruptHandler;
   920  0003FC  C019  F001         	movff	IOCEF2_SetInterruptHandler@InterruptHandler,_IOCEF2_InterruptHandler
   921  000400  C01A  F002         	movff	IOCEF2_SetInterruptHandler@InterruptHandler+1,_IOCEF2_InterruptHandler+1
   922  000404  0012               	return		;funcret
   923  000406                     __end_of_IOCEF2_SetInterruptHandler:
   924                           	callstack 0
   925                           
   926 ;; *************** function _IOCEF1_SetInterruptHandler *****************
   927 ;; Defined at:
   928 ;;		line 568 in file "mcc_generated_files/pin_manager.c"
   929 ;; Parameters:    Size  Location     Type
   930 ;;  InterruptHan    2    2[COMRAM] PTR FTN()void 
   931 ;;		 -> IOCEF1_DefaultInterruptHandler(1), 
   932 ;; Auto vars:     Size  Location     Type
   933 ;;		None
   934 ;; Return value:  Size  Location     Type
   935 ;;                  1    wreg      void 
   936 ;; Registers used:
   937 ;;		wreg, status,2, status,0
   938 ;; Tracked objects:
   939 ;;		On entry : 0/0
   940 ;;		On exit  : 0/0
   941 ;;		Unchanged: 0/0
   942 ;; Data sizes:     COMRAM   BANK0   BANK1   BANK2   BANK3   BANK4   BANK5   BANK6   BANK7
   943 ;;      Params:         2       0       0       0       0       0       0       0       0
   944 ;;      Locals:         0       0       0       0       0       0       0       0       0
   945 ;;      Temps:          0       0       0       0       0       0       0       0       0
   946 ;;      Totals:         2       0       0       0       0       0       0       0       0
   947 ;;Total ram usage:        2 bytes
   948 ;; Hardware stack levels used:    1
   949 ;; Hardware stack levels required when called:    2
   950 ;; This function calls:
   951 ;;		Nothing
   952 ;; This function is called by:
   953 ;;		_PIN_MANAGER_Initialize
   954 ;; This function uses a non-reentrant model
   955 ;;
   956                           
   957                           	psect	text5
   958  000406                     __ptext5:
   959                           	callstack 0
   960  000406                     _IOCEF1_SetInterruptHandler:
   961                           	callstack 26
   962  000406                     
   963                           ;mcc_generated_files/pin_manager.c: 569:     IOCEF1_InterruptHandler = InterruptHandler;
   964  000406  C019  F003         	movff	IOCEF1_SetInterruptHandler@InterruptHandler,_IOCEF1_InterruptHandler
   965  00040A  C01A  F004         	movff	IOCEF1_SetInterruptHandler@InterruptHandler+1,_IOCEF1_InterruptHandler+1
   966  00040E  0012               	return		;funcret
   967  000410                     __end_of_IOCEF1_SetInterruptHandler:
   968                           	callstack 0
   969                           
   970 ;; *************** function _IOCEF0_SetInterruptHandler *****************
   971 ;; Defined at:
   972 ;;		line 538 in file "mcc_generated_files/pin_manager.c"
   973 ;; Parameters:    Size  Location     Type
   974 ;;  InterruptHan    2    2[COMRAM] PTR FTN()void 
   975 ;;		 -> IOCEF0_DefaultInterruptHandler(1), 
   976 ;; Auto vars:     Size  Location     Type
   977 ;;		None
   978 ;; Return value:  Size  Location     Type
   979 ;;                  1    wreg      void 
   980 ;; Registers used:
   981 ;;		wreg, status,2, status,0
   982 ;; Tracked objects:
   983 ;;		On entry : 0/0
   984 ;;		On exit  : 0/0
   985 ;;		Unchanged: 0/0
   986 ;; Data sizes:     COMRAM   BANK0   BANK1   BANK2   BANK3   BANK4   BANK5   BANK6   BANK7
   987 ;;      Params:         2       0       0       0       0       0       0       0       0
   988 ;;      Locals:         0       0       0       0       0       0       0       0       0
   989 ;;      Temps:          0       0       0       0       0       0       0       0       0
   990 ;;      Totals:         2       0       0       0       0       0       0       0       0
   991 ;;Total ram usage:        2 bytes
   992 ;; Hardware stack levels used:    1
   993 ;; Hardware stack levels required when called:    2
   994 ;; This function calls:
   995 ;;		Nothing
   996 ;; This function is called by:
   997 ;;		_PIN_MANAGER_Initialize
   998 ;; This function uses a non-reentrant model
   999 ;;
  1000                           
  1001                           	psect	text6
  1002  000410                     __ptext6:
  1003                           	callstack 0
  1004  000410                     _IOCEF0_SetInterruptHandler:
  1005                           	callstack 26
  1006  000410                     
  1007                           ;mcc_generated_files/pin_manager.c: 539:     IOCEF0_InterruptHandler = InterruptHandler;
  1008  000410  C019  F005         	movff	IOCEF0_SetInterruptHandler@InterruptHandler,_IOCEF0_InterruptHandler
  1009  000414  C01A  F006         	movff	IOCEF0_SetInterruptHandler@InterruptHandler+1,_IOCEF0_InterruptHandler+1
  1010  000418  0012               	return		;funcret
  1011  00041A                     __end_of_IOCEF0_SetInterruptHandler:
  1012                           	callstack 0
  1013                           
  1014 ;; *************** function _IOCCF1_SetInterruptHandler *****************
  1015 ;; Defined at:
  1016 ;;		line 508 in file "mcc_generated_files/pin_manager.c"
  1017 ;; Parameters:    Size  Location     Type
  1018 ;;  InterruptHan    2    2[COMRAM] PTR FTN()void 
  1019 ;;		 -> IOCCF1_DefaultInterruptHandler(1), 
  1020 ;; Auto vars:     Size  Location     Type
  1021 ;;		None
  1022 ;; Return value:  Size  Location     Type
  1023 ;;                  1    wreg      void 
  1024 ;; Registers used:
  1025 ;;		wreg, status,2, status,0
  1026 ;; Tracked objects:
  1027 ;;		On entry : 0/0
  1028 ;;		On exit  : 0/0
  1029 ;;		Unchanged: 0/0
  1030 ;; Data sizes:     COMRAM   BANK0   BANK1   BANK2   BANK3   BANK4   BANK5   BANK6   BANK7
  1031 ;;      Params:         2       0       0       0       0       0       0       0       0
  1032 ;;      Locals:         0       0       0       0       0       0       0       0       0
  1033 ;;      Temps:          0       0       0       0       0       0       0       0       0
  1034 ;;      Totals:         2       0       0       0       0       0       0       0       0
  1035 ;;Total ram usage:        2 bytes
  1036 ;; Hardware stack levels used:    1
  1037 ;; Hardware stack levels required when called:    2
  1038 ;; This function calls:
  1039 ;;		Nothing
  1040 ;; This function is called by:
  1041 ;;		_PIN_MANAGER_Initialize
  1042 ;; This function uses a non-reentrant model
  1043 ;;
  1044                           
  1045                           	psect	text7
  1046  00041A                     __ptext7:
  1047                           	callstack 0
  1048  00041A                     _IOCCF1_SetInterruptHandler:
  1049                           	callstack 26
  1050  00041A                     
  1051                           ;mcc_generated_files/pin_manager.c: 509:     IOCCF1_InterruptHandler = InterruptHandler;
  1052  00041A  C019  F007         	movff	IOCCF1_SetInterruptHandler@InterruptHandler,_IOCCF1_InterruptHandler
  1053  00041E  C01A  F008         	movff	IOCCF1_SetInterruptHandler@InterruptHandler+1,_IOCCF1_InterruptHandler+1
  1054  000422  0012               	return		;funcret
  1055  000424                     __end_of_IOCCF1_SetInterruptHandler:
  1056                           	callstack 0
  1057                           
  1058 ;; *************** function _IOCCF0_SetInterruptHandler *****************
  1059 ;; Defined at:
  1060 ;;		line 478 in file "mcc_generated_files/pin_manager.c"
  1061 ;; Parameters:    Size  Location     Type
  1062 ;;  InterruptHan    2    2[COMRAM] PTR FTN()void 
  1063 ;;		 -> IOCCF0_DefaultInterruptHandler(1), 
  1064 ;; Auto vars:     Size  Location     Type
  1065 ;;		None
  1066 ;; Return value:  Size  Location     Type
  1067 ;;                  1    wreg      void 
  1068 ;; Registers used:
  1069 ;;		wreg, status,2, status,0
  1070 ;; Tracked objects:
  1071 ;;		On entry : 0/0
  1072 ;;		On exit  : 0/0
  1073 ;;		Unchanged: 0/0
  1074 ;; Data sizes:     COMRAM   BANK0   BANK1   BANK2   BANK3   BANK4   BANK5   BANK6   BANK7
  1075 ;;      Params:         2       0       0       0       0       0       0       0       0
  1076 ;;      Locals:         0       0       0       0       0       0       0       0       0
  1077 ;;      Temps:          0       0       0       0       0       0       0       0       0
  1078 ;;      Totals:         2       0       0       0       0       0       0       0       0
  1079 ;;Total ram usage:        2 bytes
  1080 ;; Hardware stack levels used:    1
  1081 ;; Hardware stack levels required when called:    2
  1082 ;; This function calls:
  1083 ;;		Nothing
  1084 ;; This function is called by:
  1085 ;;		_PIN_MANAGER_Initialize
  1086 ;; This function uses a non-reentrant model
  1087 ;;
  1088                           
  1089                           	psect	text8
  1090  000424                     __ptext8:
  1091                           	callstack 0
  1092  000424                     _IOCCF0_SetInterruptHandler:
  1093                           	callstack 26
  1094  000424                     
  1095                           ;mcc_generated_files/pin_manager.c: 479:     IOCCF0_InterruptHandler = InterruptHandler;
  1096  000424  C019  F009         	movff	IOCCF0_SetInterruptHandler@InterruptHandler,_IOCCF0_InterruptHandler
  1097  000428  C01A  F00A         	movff	IOCCF0_SetInterruptHandler@InterruptHandler+1,_IOCCF0_InterruptHandler+1
  1098  00042C  0012               	return		;funcret
  1099  00042E                     __end_of_IOCCF0_SetInterruptHandler:
  1100                           	callstack 0
  1101                           
  1102 ;; *************** function _IOCAF5_SetInterruptHandler *****************
  1103 ;; Defined at:
  1104 ;;		line 448 in file "mcc_generated_files/pin_manager.c"
  1105 ;; Parameters:    Size  Location     Type
  1106 ;;  InterruptHan    2    2[COMRAM] PTR FTN()void 
  1107 ;;		 -> IOCAF5_DefaultInterruptHandler(1), 
  1108 ;; Auto vars:     Size  Location     Type
  1109 ;;		None
  1110 ;; Return value:  Size  Location     Type
  1111 ;;                  1    wreg      void 
  1112 ;; Registers used:
  1113 ;;		wreg, status,2, status,0
  1114 ;; Tracked objects:
  1115 ;;		On entry : 0/0
  1116 ;;		On exit  : 0/0
  1117 ;;		Unchanged: 0/0
  1118 ;; Data sizes:     COMRAM   BANK0   BANK1   BANK2   BANK3   BANK4   BANK5   BANK6   BANK7
  1119 ;;      Params:         2       0       0       0       0       0       0       0       0
  1120 ;;      Locals:         0       0       0       0       0       0       0       0       0
  1121 ;;      Temps:          0       0       0       0       0       0       0       0       0
  1122 ;;      Totals:         2       0       0       0       0       0       0       0       0
  1123 ;;Total ram usage:        2 bytes
  1124 ;; Hardware stack levels used:    1
  1125 ;; Hardware stack levels required when called:    2
  1126 ;; This function calls:
  1127 ;;		Nothing
  1128 ;; This function is called by:
  1129 ;;		_PIN_MANAGER_Initialize
  1130 ;; This function uses a non-reentrant model
  1131 ;;
  1132                           
  1133                           	psect	text9
  1134  00042E                     __ptext9:
  1135                           	callstack 0
  1136  00042E                     _IOCAF5_SetInterruptHandler:
  1137                           	callstack 26
  1138  00042E                     
  1139                           ;mcc_generated_files/pin_manager.c: 449:     IOCAF5_InterruptHandler = InterruptHandler;
  1140  00042E  C019  F00B         	movff	IOCAF5_SetInterruptHandler@InterruptHandler,_IOCAF5_InterruptHandler
  1141  000432  C01A  F00C         	movff	IOCAF5_SetInterruptHandler@InterruptHandler+1,_IOCAF5_InterruptHandler+1
  1142  000436  0012               	return		;funcret
  1143  000438                     __end_of_IOCAF5_SetInterruptHandler:
  1144                           	callstack 0
  1145                           
  1146 ;; *************** function _IOCAF4_SetInterruptHandler *****************
  1147 ;; Defined at:
  1148 ;;		line 418 in file "mcc_generated_files/pin_manager.c"
  1149 ;; Parameters:    Size  Location     Type
  1150 ;;  InterruptHan    2    2[COMRAM] PTR FTN()void 
  1151 ;;		 -> IOCAF4_DefaultInterruptHandler(1), 
  1152 ;; Auto vars:     Size  Location     Type
  1153 ;;		None
  1154 ;; Return value:  Size  Location     Type
  1155 ;;                  1    wreg      void 
  1156 ;; Registers used:
  1157 ;;		wreg, status,2, status,0
  1158 ;; Tracked objects:
  1159 ;;		On entry : 0/0
  1160 ;;		On exit  : 0/0
  1161 ;;		Unchanged: 0/0
  1162 ;; Data sizes:     COMRAM   BANK0   BANK1   BANK2   BANK3   BANK4   BANK5   BANK6   BANK7
  1163 ;;      Params:         2       0       0       0       0       0       0       0       0
  1164 ;;      Locals:         0       0       0       0       0       0       0       0       0
  1165 ;;      Temps:          0       0       0       0       0       0       0       0       0
  1166 ;;      Totals:         2       0       0       0       0       0       0       0       0
  1167 ;;Total ram usage:        2 bytes
  1168 ;; Hardware stack levels used:    1
  1169 ;; Hardware stack levels required when called:    2
  1170 ;; This function calls:
  1171 ;;		Nothing
  1172 ;; This function is called by:
  1173 ;;		_PIN_MANAGER_Initialize
  1174 ;; This function uses a non-reentrant model
  1175 ;;
  1176                           
  1177                           	psect	text10
  1178  000438                     __ptext10:
  1179                           	callstack 0
  1180  000438                     _IOCAF4_SetInterruptHandler:
  1181                           	callstack 26
  1182  000438                     
  1183                           ;mcc_generated_files/pin_manager.c: 419:     IOCAF4_InterruptHandler = InterruptHandler;
  1184  000438  C019  F00D         	movff	IOCAF4_SetInterruptHandler@InterruptHandler,_IOCAF4_InterruptHandler
  1185  00043C  C01A  F00E         	movff	IOCAF4_SetInterruptHandler@InterruptHandler+1,_IOCAF4_InterruptHandler+1
  1186  000440  0012               	return		;funcret
  1187  000442                     __end_of_IOCAF4_SetInterruptHandler:
  1188                           	callstack 0
  1189                           
  1190 ;; *************** function _IOCAF3_SetInterruptHandler *****************
  1191 ;; Defined at:
  1192 ;;		line 388 in file "mcc_generated_files/pin_manager.c"
  1193 ;; Parameters:    Size  Location     Type
  1194 ;;  InterruptHan    2    2[COMRAM] PTR FTN()void 
  1195 ;;		 -> IOCAF3_DefaultInterruptHandler(1), 
  1196 ;; Auto vars:     Size  Location     Type
  1197 ;;		None
  1198 ;; Return value:  Size  Location     Type
  1199 ;;                  1    wreg      void 
  1200 ;; Registers used:
  1201 ;;		wreg, status,2, status,0
  1202 ;; Tracked objects:
  1203 ;;		On entry : 0/0
  1204 ;;		On exit  : 0/0
  1205 ;;		Unchanged: 0/0
  1206 ;; Data sizes:     COMRAM   BANK0   BANK1   BANK2   BANK3   BANK4   BANK5   BANK6   BANK7
  1207 ;;      Params:         2       0       0       0       0       0       0       0       0
  1208 ;;      Locals:         0       0       0       0       0       0       0       0       0
  1209 ;;      Temps:          0       0       0       0       0       0       0       0       0
  1210 ;;      Totals:         2       0       0       0       0       0       0       0       0
  1211 ;;Total ram usage:        2 bytes
  1212 ;; Hardware stack levels used:    1
  1213 ;; Hardware stack levels required when called:    2
  1214 ;; This function calls:
  1215 ;;		Nothing
  1216 ;; This function is called by:
  1217 ;;		_PIN_MANAGER_Initialize
  1218 ;; This function uses a non-reentrant model
  1219 ;;
  1220                           
  1221                           	psect	text11
  1222  000442                     __ptext11:
  1223                           	callstack 0
  1224  000442                     _IOCAF3_SetInterruptHandler:
  1225                           	callstack 26
  1226  000442                     
  1227                           ;mcc_generated_files/pin_manager.c: 389:     IOCAF3_InterruptHandler = InterruptHandler;
  1228  000442  C019  F00F         	movff	IOCAF3_SetInterruptHandler@InterruptHandler,_IOCAF3_InterruptHandler
  1229  000446  C01A  F010         	movff	IOCAF3_SetInterruptHandler@InterruptHandler+1,_IOCAF3_InterruptHandler+1
  1230  00044A  0012               	return		;funcret
  1231  00044C                     __end_of_IOCAF3_SetInterruptHandler:
  1232                           	callstack 0
  1233                           
  1234 ;; *************** function _IOCAF2_SetInterruptHandler *****************
  1235 ;; Defined at:
  1236 ;;		line 358 in file "mcc_generated_files/pin_manager.c"
  1237 ;; Parameters:    Size  Location     Type
  1238 ;;  InterruptHan    2    2[COMRAM] PTR FTN()void 
  1239 ;;		 -> IOCAF2_DefaultInterruptHandler(1), 
  1240 ;; Auto vars:     Size  Location     Type
  1241 ;;		None
  1242 ;; Return value:  Size  Location     Type
  1243 ;;                  1    wreg      void 
  1244 ;; Registers used:
  1245 ;;		wreg, status,2, status,0
  1246 ;; Tracked objects:
  1247 ;;		On entry : 0/0
  1248 ;;		On exit  : 0/0
  1249 ;;		Unchanged: 0/0
  1250 ;; Data sizes:     COMRAM   BANK0   BANK1   BANK2   BANK3   BANK4   BANK5   BANK6   BANK7
  1251 ;;      Params:         2       0       0       0       0       0       0       0       0
  1252 ;;      Locals:         0       0       0       0       0       0       0       0       0
  1253 ;;      Temps:          0       0       0       0       0       0       0       0       0
  1254 ;;      Totals:         2       0       0       0       0       0       0       0       0
  1255 ;;Total ram usage:        2 bytes
  1256 ;; Hardware stack levels used:    1
  1257 ;; Hardware stack levels required when called:    2
  1258 ;; This function calls:
  1259 ;;		Nothing
  1260 ;; This function is called by:
  1261 ;;		_PIN_MANAGER_Initialize
  1262 ;; This function uses a non-reentrant model
  1263 ;;
  1264                           
  1265                           	psect	text12
  1266  00044C                     __ptext12:
  1267                           	callstack 0
  1268  00044C                     _IOCAF2_SetInterruptHandler:
  1269                           	callstack 26
  1270  00044C                     
  1271                           ;mcc_generated_files/pin_manager.c: 359:     IOCAF2_InterruptHandler = InterruptHandler;
  1272  00044C  C019  F011         	movff	IOCAF2_SetInterruptHandler@InterruptHandler,_IOCAF2_InterruptHandler
  1273  000450  C01A  F012         	movff	IOCAF2_SetInterruptHandler@InterruptHandler+1,_IOCAF2_InterruptHandler+1
  1274  000454  0012               	return		;funcret
  1275  000456                     __end_of_IOCAF2_SetInterruptHandler:
  1276                           	callstack 0
  1277                           
  1278 ;; *************** function _IOCAF1_SetInterruptHandler *****************
  1279 ;; Defined at:
  1280 ;;		line 328 in file "mcc_generated_files/pin_manager.c"
  1281 ;; Parameters:    Size  Location     Type
  1282 ;;  InterruptHan    2    2[COMRAM] PTR FTN()void 
  1283 ;;		 -> IOCAF1_DefaultInterruptHandler(1), 
  1284 ;; Auto vars:     Size  Location     Type
  1285 ;;		None
  1286 ;; Return value:  Size  Location     Type
  1287 ;;                  1    wreg      void 
  1288 ;; Registers used:
  1289 ;;		wreg, status,2, status,0
  1290 ;; Tracked objects:
  1291 ;;		On entry : 0/0
  1292 ;;		On exit  : 0/0
  1293 ;;		Unchanged: 0/0
  1294 ;; Data sizes:     COMRAM   BANK0   BANK1   BANK2   BANK3   BANK4   BANK5   BANK6   BANK7
  1295 ;;      Params:         2       0       0       0       0       0       0       0       0
  1296 ;;      Locals:         0       0       0       0       0       0       0       0       0
  1297 ;;      Temps:          0       0       0       0       0       0       0       0       0
  1298 ;;      Totals:         2       0       0       0       0       0       0       0       0
  1299 ;;Total ram usage:        2 bytes
  1300 ;; Hardware stack levels used:    1
  1301 ;; Hardware stack levels required when called:    2
  1302 ;; This function calls:
  1303 ;;		Nothing
  1304 ;; This function is called by:
  1305 ;;		_PIN_MANAGER_Initialize
  1306 ;; This function uses a non-reentrant model
  1307 ;;
  1308                           
  1309                           	psect	text13
  1310  000456                     __ptext13:
  1311                           	callstack 0
  1312  000456                     _IOCAF1_SetInterruptHandler:
  1313                           	callstack 26
  1314  000456                     
  1315                           ;mcc_generated_files/pin_manager.c: 329:     IOCAF1_InterruptHandler = InterruptHandler;
  1316  000456  C019  F013         	movff	IOCAF1_SetInterruptHandler@InterruptHandler,_IOCAF1_InterruptHandler
  1317  00045A  C01A  F014         	movff	IOCAF1_SetInterruptHandler@InterruptHandler+1,_IOCAF1_InterruptHandler+1
  1318  00045E  0012               	return		;funcret
  1319  000460                     __end_of_IOCAF1_SetInterruptHandler:
  1320                           	callstack 0
  1321                           
  1322 ;; *************** function _IOCAF0_SetInterruptHandler *****************
  1323 ;; Defined at:
  1324 ;;		line 298 in file "mcc_generated_files/pin_manager.c"
  1325 ;; Parameters:    Size  Location     Type
  1326 ;;  InterruptHan    2    2[COMRAM] PTR FTN()void 
  1327 ;;		 -> IOCAF0_DefaultInterruptHandler(1), 
  1328 ;; Auto vars:     Size  Location     Type
  1329 ;;		None
  1330 ;; Return value:  Size  Location     Type
  1331 ;;                  1    wreg      void 
  1332 ;; Registers used:
  1333 ;;		wreg, status,2, status,0
  1334 ;; Tracked objects:
  1335 ;;		On entry : 0/0
  1336 ;;		On exit  : 0/0
  1337 ;;		Unchanged: 0/0
  1338 ;; Data sizes:     COMRAM   BANK0   BANK1   BANK2   BANK3   BANK4   BANK5   BANK6   BANK7
  1339 ;;      Params:         2       0       0       0       0       0       0       0       0
  1340 ;;      Locals:         0       0       0       0       0       0       0       0       0
  1341 ;;      Temps:          0       0       0       0       0       0       0       0       0
  1342 ;;      Totals:         2       0       0       0       0       0       0       0       0
  1343 ;;Total ram usage:        2 bytes
  1344 ;; Hardware stack levels used:    1
  1345 ;; Hardware stack levels required when called:    2
  1346 ;; This function calls:
  1347 ;;		Nothing
  1348 ;; This function is called by:
  1349 ;;		_PIN_MANAGER_Initialize
  1350 ;; This function uses a non-reentrant model
  1351 ;;
  1352                           
  1353                           	psect	text14
  1354  000460                     __ptext14:
  1355                           	callstack 0
  1356  000460                     _IOCAF0_SetInterruptHandler:
  1357                           	callstack 26
  1358  000460                     
  1359                           ;mcc_generated_files/pin_manager.c: 299:     IOCAF0_InterruptHandler = InterruptHandler;
  1360  000460  C019  F015         	movff	IOCAF0_SetInterruptHandler@InterruptHandler,_IOCAF0_InterruptHandler
  1361  000464  C01A  F016         	movff	IOCAF0_SetInterruptHandler@InterruptHandler+1,_IOCAF0_InterruptHandler+1
  1362  000468  0012               	return		;funcret
  1363  00046A                     __end_of_IOCAF0_SetInterruptHandler:
  1364                           	callstack 0
  1365                           
  1366 ;; *************** function _OSCILLATOR_Initialize *****************
  1367 ;; Defined at:
  1368 ;;		line 57 in file "mcc_generated_files/mcc.c"
  1369 ;; Parameters:    Size  Location     Type
  1370 ;;		None
  1371 ;; Auto vars:     Size  Location     Type
  1372 ;;		None
  1373 ;; Return value:  Size  Location     Type
  1374 ;;                  1    wreg      void 
  1375 ;; Registers used:
  1376 ;;		wreg, status,2
  1377 ;; Tracked objects:
  1378 ;;		On entry : 0/0
  1379 ;;		On exit  : 0/0
  1380 ;;		Unchanged: 0/0
  1381 ;; Data sizes:     COMRAM   BANK0   BANK1   BANK2   BANK3   BANK4   BANK5   BANK6   BANK7
  1382 ;;      Params:         0       0       0       0       0       0       0       0       0
  1383 ;;      Locals:         0       0       0       0       0       0       0       0       0
  1384 ;;      Temps:          0       0       0       0       0       0       0       0       0
  1385 ;;      Totals:         0       0       0       0       0       0       0       0       0
  1386 ;;Total ram usage:        0 bytes
  1387 ;; Hardware stack levels used:    1
  1388 ;; Hardware stack levels required when called:    2
  1389 ;; This function calls:
  1390 ;;		Nothing
  1391 ;; This function is called by:
  1392 ;;		_SYSTEM_Initialize
  1393 ;; This function uses a non-reentrant model
  1394 ;;
  1395                           
  1396                           	psect	text15
  1397  0003B4                     __ptext15:
  1398                           	callstack 0
  1399  0003B4                     _OSCILLATOR_Initialize:
  1400                           	callstack 27
  1401  0003B4                     
  1402                           ;mcc_generated_files/mcc.c: 60:     OSCCON1 = 0x60;
  1403  0003B4  0E60               	movlw	96
  1404  0003B6  010E               	movlb	14	; () banked
  1405  0003B8  6FD3               	movwf	211,b	;volatile
  1406                           
  1407                           ;mcc_generated_files/mcc.c: 62:     OSCCON3 = 0x00;
  1408  0003BA  0E00               	movlw	0
  1409  0003BC  6FD5               	movwf	213,b	;volatile
  1410                           
  1411                           ;mcc_generated_files/mcc.c: 64:     OSCEN = 0x00;
  1412  0003BE  0E00               	movlw	0
  1413  0003C0  6FD7               	movwf	215,b	;volatile
  1414                           
  1415                           ;mcc_generated_files/mcc.c: 66:     OSCFRQ = 0x08;
  1416  0003C2  0E08               	movlw	8
  1417  0003C4  6FD9               	movwf	217,b	;volatile
  1418                           
  1419                           ;mcc_generated_files/mcc.c: 68:     OSCTUNE = 0x00;
  1420  0003C6  0E00               	movlw	0
  1421  0003C8  6FD8               	movwf	216,b	;volatile
  1422  0003CA                     
  1423                           ; BSR set to: 14
  1424  0003CA  0012               	return		;funcret
  1425  0003CC                     __end_of_OSCILLATOR_Initialize:
  1426                           	callstack 0
  1427                           
  1428 ;; *************** function _IOC_Initialize *****************
  1429 ;; Defined at:
  1430 ;;		line 47 in file "main.c"
  1431 ;; Parameters:    Size  Location     Type
  1432 ;;		None
  1433 ;; Auto vars:     Size  Location     Type
  1434 ;;		None
  1435 ;; Return value:  Size  Location     Type
  1436 ;;                  1    wreg      void 
  1437 ;; Registers used:
  1438 ;;		None
  1439 ;; Tracked objects:
  1440 ;;		On entry : 0/0
  1441 ;;		On exit  : 0/0
  1442 ;;		Unchanged: 0/0
  1443 ;; Data sizes:     COMRAM   BANK0   BANK1   BANK2   BANK3   BANK4   BANK5   BANK6   BANK7
  1444 ;;      Params:         0       0       0       0       0       0       0       0       0
  1445 ;;      Locals:         0       0       0       0       0       0       0       0       0
  1446 ;;      Temps:          0       0       0       0       0       0       0       0       0
  1447 ;;      Totals:         0       0       0       0       0       0       0       0       0
  1448 ;;Total ram usage:        0 bytes
  1449 ;; Hardware stack levels used:    1
  1450 ;; Hardware stack levels required when called:    2
  1451 ;; This function calls:
  1452 ;;		Nothing
  1453 ;; This function is called by:
  1454 ;;		_main
  1455 ;; This function uses a non-reentrant model
  1456 ;;
  1457                           
  1458                           	psect	text16
  1459  000472                     __ptext16:
  1460                           	callstack 0
  1461  000472                     _IOC_Initialize:
  1462                           	callstack 28
  1463  000472                     
  1464                           ;main.c: 50:     PIE0bits.IOCIE = 1;
  1465  000472  010E               	movlb	14	; () banked
  1466  000474  89BD               	bsf	189,4,b	;volatile
  1467  000476                     
  1468                           ; BSR set to: 14
  1469  000476  0012               	return		;funcret
  1470  000478                     __end_of_IOC_Initialize:
  1471                           	callstack 0
  1472                           
  1473 ;; *************** function _INTERRUPT_Initialize *****************
  1474 ;; Defined at:
  1475 ;;		line 65 in file "main.c"
  1476 ;; Parameters:    Size  Location     Type
  1477 ;;		None
  1478 ;; Auto vars:     Size  Location     Type
  1479 ;;		None
  1480 ;; Return value:  Size  Location     Type
  1481 ;;                  1    wreg      void 
  1482 ;; Registers used:
  1483 ;;		None
  1484 ;; Tracked objects:
  1485 ;;		On entry : 0/0
  1486 ;;		On exit  : 0/0
  1487 ;;		Unchanged: 0/0
  1488 ;; Data sizes:     COMRAM   BANK0   BANK1   BANK2   BANK3   BANK4   BANK5   BANK6   BANK7
  1489 ;;      Params:         0       0       0       0       0       0       0       0       0
  1490 ;;      Locals:         0       0       0       0       0       0       0       0       0
  1491 ;;      Temps:          0       0       0       0       0       0       0       0       0
  1492 ;;      Totals:         0       0       0       0       0       0       0       0       0
  1493 ;;Total ram usage:        0 bytes
  1494 ;; Hardware stack levels used:    1
  1495 ;; Hardware stack levels required when called:    2
  1496 ;; This function calls:
  1497 ;;		Nothing
  1498 ;; This function is called by:
  1499 ;;		_main
  1500 ;; This function uses a non-reentrant model
  1501 ;;
  1502                           
  1503                           	psect	text17
  1504  00046A                     __ptext17:
  1505                           	callstack 0
  1506  00046A                     _INTERRUPT_Initialize:
  1507                           	callstack 28
  1508  00046A                     
  1509                           ;main.c: 68:     INTCONbits.IPEN = 0;
  1510  00046A  9AF2               	bcf	242,5,c	;volatile
  1511                           
  1512                           ;main.c: 69:     INTCONbits.GIE = 1;
  1513  00046C  8EF2               	bsf	242,7,c	;volatile
  1514                           
  1515                           ;main.c: 70:     INTCONbits.PEIE = 1;
  1516  00046E  8CF2               	bsf	242,6,c	;volatile
  1517  000470  0012               	return		;funcret
  1518  000472                     __end_of_INTERRUPT_Initialize:
  1519                           	callstack 0
  1520                           
  1521 ;; *************** function _INTERRUPT_InterruptManager *****************
  1522 ;; Defined at:
  1523 ;;		line 77 in file "main.c"
  1524 ;; Parameters:    Size  Location     Type
  1525 ;;		None
  1526 ;; Auto vars:     Size  Location     Type
  1527 ;;		None
  1528 ;; Return value:  Size  Location     Type
  1529 ;;                  1    wreg      void 
  1530 ;; Registers used:
  1531 ;;		wreg, status,2, status,0, cstack
  1532 ;; Tracked objects:
  1533 ;;		On entry : 0/0
  1534 ;;		On exit  : 0/0
  1535 ;;		Unchanged: 0/0
  1536 ;; Data sizes:     COMRAM   BANK0   BANK1   BANK2   BANK3   BANK4   BANK5   BANK6   BANK7
  1537 ;;      Params:         0       0       0       0       0       0       0       0       0
  1538 ;;      Locals:         0       0       0       0       0       0       0       0       0
  1539 ;;      Temps:          2       0       0       0       0       0       0       0       0
  1540 ;;      Totals:         2       0       0       0       0       0       0       0       0
  1541 ;;Total ram usage:        2 bytes
  1542 ;; Hardware stack levels used:    1
  1543 ;; Hardware stack levels required when called:    1
  1544 ;; This function calls:
  1545 ;;		_Local_IOCCF4_ISR
  1546 ;; This function is called by:
  1547 ;;		Interrupt level 2
  1548 ;; This function uses a non-reentrant model
  1549 ;;
  1550                           
  1551                           	psect	intcode
  1552  000008                     __pintcode:
  1553                           	callstack 0
  1554  000008                     _INTERRUPT_InterruptManager:
  1555                           	callstack 26
  1556                           
  1557                           ;incstack = 0
  1558  000008  821D               	bsf	int$flags,1,c	;set compiler interrupt flag (level 2)
  1559  00000A                     
  1560                           ;main.c: 79:     if(IOCAFbits_Data != 0){
  1561  00000A  010F               	movlb	15	; () banked
  1562  00000C  5105               	movf	5,w,b	;volatile
  1563  00000E  B4D8               	btfsc	status,2,c
  1564  000010  EF0C  F000         	goto	i2u36_41
  1565  000014  EF0E  F000         	goto	i2u36_40
  1566  000018                     i2u36_41:
  1567  000018  EF79  F000         	goto	i2l382
  1568  00001C                     i2u36_40:
  1569  00001C  EF22  F000         	goto	i2l1368
  1570  000020                     i2l384:
  1571                           
  1572                           ; BSR set to: 15
  1573                           ;main.c: 82:                 IOCAFbits.IOCAF0 = 0;
  1574  000020  9105               	bcf	5,0,b	;volatile
  1575                           
  1576                           ;main.c: 83:                 return;
  1577  000022  EFFB  F000         	goto	i2l385
  1578  000026                     i2l386:
  1579                           
  1580                           ; BSR set to: 15
  1581                           ;main.c: 85:                 IOCAFbits.IOCAF1 = 0;
  1582  000026  9305               	bcf	5,1,b	;volatile
  1583                           
  1584                           ;main.c: 86:                 return;
  1585  000028  EFFB  F000         	goto	i2l385
  1586  00002C                     i2l387:
  1587                           
  1588                           ; BSR set to: 15
  1589                           ;main.c: 88:                 IOCAFbits.IOCAF2 = 0;
  1590  00002C  9505               	bcf	5,2,b	;volatile
  1591                           
  1592                           ;main.c: 89:                 return;
  1593  00002E  EFFB  F000         	goto	i2l385
  1594  000032                     i2l388:
  1595                           
  1596                           ; BSR set to: 15
  1597                           ;main.c: 91:                 IOCAFbits.IOCAF3 = 0;
  1598  000032  9705               	bcf	5,3,b	;volatile
  1599                           
  1600                           ;main.c: 92:                 return;
  1601  000034  EFFB  F000         	goto	i2l385
  1602  000038                     i2l389:
  1603                           
  1604                           ; BSR set to: 15
  1605                           ;main.c: 94:                 IOCAFbits.IOCAF4 = 0;
  1606  000038  9905               	bcf	5,4,b	;volatile
  1607                           
  1608                           ;main.c: 95:                 return;
  1609  00003A  EFFB  F000         	goto	i2l385
  1610  00003E                     i2l390:
  1611                           
  1612                           ; BSR set to: 15
  1613                           ;main.c: 97:                 IOCAFbits.IOCAF5 = 0;
  1614  00003E  9B05               	bcf	5,5,b	;volatile
  1615                           
  1616                           ;main.c: 98:                 return;
  1617  000040  EFFB  F000         	goto	i2l385
  1618  000044                     i2l1368:
  1619                           
  1620                           ; BSR set to: 15
  1621  000044  510D               	movf	13,w,b	;volatile
  1622  000046  6E17               	movwf	??_INTERRUPT_InterruptManager^0,c
  1623  000048  6A18               	clrf	(??_INTERRUPT_InterruptManager+1)^0,c
  1624                           
  1625                           ; Switch on 2 bytes has been partitioned into a top level switch of size 1, and 1 sub-sw
      +                          itches
  1626                           ; Switch size 1, requested type "simple"
  1627                           ; Number of cases is 1, Range of values is 0 to 0
  1628                           ; switch strategies available:
  1629                           ; Name         Instructions Cycles
  1630                           ; simple_byte            4     3 (average)
  1631                           ;	Chosen strategy is simple_byte
  1632  00004A  5018               	movf	(??_INTERRUPT_InterruptManager+1)^0,w,c
  1633  00004C  0A00               	xorlw	0	; case 0
  1634  00004E  B4D8               	btfsc	status,2,c
  1635  000050  EF2C  F000         	goto	i2l1758
  1636  000054  EF47  F000         	goto	i2l392
  1637  000058                     i2l1758:
  1638                           
  1639                           ; BSR set to: 15
  1640                           ; Switch size 1, requested type "simple"
  1641                           ; Number of cases is 6, Range of values is 1 to 32
  1642                           ; switch strategies available:
  1643                           ; Name         Instructions Cycles
  1644                           ; simple_byte           19    10 (average)
  1645                           ;	Chosen strategy is simple_byte
  1646  000058  5017               	movf	??_INTERRUPT_InterruptManager^0,w,c
  1647  00005A  0A01               	xorlw	1	; case 1
  1648  00005C  B4D8               	btfsc	status,2,c
  1649  00005E  EF10  F000         	goto	i2l384
  1650  000062  0A03               	xorlw	3	; case 2
  1651  000064  B4D8               	btfsc	status,2,c
  1652  000066  EF13  F000         	goto	i2l386
  1653  00006A  0A06               	xorlw	6	; case 4
  1654  00006C  B4D8               	btfsc	status,2,c
  1655  00006E  EF16  F000         	goto	i2l387
  1656  000072  0A0C               	xorlw	12	; case 8
  1657  000074  B4D8               	btfsc	status,2,c
  1658  000076  EF19  F000         	goto	i2l388
  1659  00007A  0A18               	xorlw	24	; case 16
  1660  00007C  B4D8               	btfsc	status,2,c
  1661  00007E  EF1C  F000         	goto	i2l389
  1662  000082  0A30               	xorlw	48	; case 32
  1663  000084  B4D8               	btfsc	status,2,c
  1664  000086  EF1F  F000         	goto	i2l390
  1665  00008A  EF47  F000         	goto	i2l392
  1666  00008E                     i2l392:
  1667                           
  1668                           ; BSR set to: 15
  1669                           ;main.c: 103:         if(IOCAFbits.IOCAF0 == 1)
  1670  00008E  A105               	btfss	5,0,b	;volatile
  1671  000090  EF4C  F000         	goto	i2u37_41
  1672  000094  EF4E  F000         	goto	i2u37_40
  1673  000098                     i2u37_41:
  1674  000098  EF4F  F000         	goto	i2l393
  1675  00009C                     i2u37_40:
  1676  00009C                     
  1677                           ; BSR set to: 15
  1678                           ;main.c: 104:         {;main.c: 105:             IOCAFbits.IOCAF0 = 0;
  1679  00009C  9105               	bcf	5,0,b	;volatile
  1680  00009E                     i2l393:
  1681                           
  1682                           ; BSR set to: 15
  1683                           ;main.c: 107:         if(IOCAFbits.IOCAF1 == 1)
  1684  00009E  A305               	btfss	5,1,b	;volatile
  1685  0000A0  EF54  F000         	goto	i2u38_41
  1686  0000A4  EF56  F000         	goto	i2u38_40
  1687  0000A8                     i2u38_41:
  1688  0000A8  EF57  F000         	goto	i2l394
  1689  0000AC                     i2u38_40:
  1690  0000AC                     
  1691                           ; BSR set to: 15
  1692                           ;main.c: 108:         {;main.c: 109:             IOCAFbits.IOCAF1 = 0;
  1693  0000AC  9305               	bcf	5,1,b	;volatile
  1694  0000AE                     i2l394:
  1695                           
  1696                           ; BSR set to: 15
  1697                           ;main.c: 111:         if(IOCAFbits.IOCAF2 == 1)
  1698  0000AE  A505               	btfss	5,2,b	;volatile
  1699  0000B0  EF5C  F000         	goto	i2u39_41
  1700  0000B4  EF5E  F000         	goto	i2u39_40
  1701  0000B8                     i2u39_41:
  1702  0000B8  EF5F  F000         	goto	i2l395
  1703  0000BC                     i2u39_40:
  1704  0000BC                     
  1705                           ; BSR set to: 15
  1706                           ;main.c: 112:         {;main.c: 113:             IOCAFbits.IOCAF2 = 0;
  1707  0000BC  9505               	bcf	5,2,b	;volatile
  1708  0000BE                     i2l395:
  1709                           
  1710                           ; BSR set to: 15
  1711                           ;main.c: 115:         if(IOCAFbits.IOCAF3 == 1)
  1712  0000BE  A705               	btfss	5,3,b	;volatile
  1713  0000C0  EF64  F000         	goto	i2u40_41
  1714  0000C4  EF66  F000         	goto	i2u40_40
  1715  0000C8                     i2u40_41:
  1716  0000C8  EF67  F000         	goto	i2l396
  1717  0000CC                     i2u40_40:
  1718  0000CC                     
  1719                           ; BSR set to: 15
  1720                           ;main.c: 116:         {;main.c: 117:             IOCAFbits.IOCAF3 = 0;
  1721  0000CC  9705               	bcf	5,3,b	;volatile
  1722  0000CE                     i2l396:
  1723                           
  1724                           ; BSR set to: 15
  1725                           ;main.c: 119:         if(IOCAFbits.IOCAF4 == 1)
  1726  0000CE  A905               	btfss	5,4,b	;volatile
  1727  0000D0  EF6C  F000         	goto	i2u41_41
  1728  0000D4  EF6E  F000         	goto	i2u41_40
  1729  0000D8                     i2u41_41:
  1730  0000D8  EF6F  F000         	goto	i2l397
  1731  0000DC                     i2u41_40:
  1732  0000DC                     
  1733                           ; BSR set to: 15
  1734                           ;main.c: 120:         {;main.c: 121:             IOCAFbits.IOCAF4 = 0;
  1735  0000DC  9905               	bcf	5,4,b	;volatile
  1736  0000DE                     i2l397:
  1737                           
  1738                           ; BSR set to: 15
  1739                           ;main.c: 123:         if(IOCAFbits.IOCAF5 == 1)
  1740  0000DE  AB05               	btfss	5,5,b	;volatile
  1741  0000E0  EF74  F000         	goto	i2u42_41
  1742  0000E4  EF76  F000         	goto	i2u42_40
  1743  0000E8                     i2u42_41:
  1744  0000E8  EF77  F000         	goto	i2l1382
  1745  0000EC                     i2u42_40:
  1746  0000EC                     
  1747                           ; BSR set to: 15
  1748                           ;main.c: 124:         {;main.c: 125:             IOCAFbits.IOCAF5 = 0;
  1749  0000EC  9B05               	bcf	5,5,b	;volatile
  1750  0000EE                     i2l1382:
  1751                           
  1752                           ; BSR set to: 15
  1753                           ;main.c: 129:         IOCAFbits_Data = 0;
  1754  0000EE  0E00               	movlw	0
  1755  0000F0  6F05               	movwf	5,b	;volatile
  1756  0000F2                     i2l382:
  1757                           
  1758                           ; BSR set to: 15
  1759                           ;main.c: 132:     if(IOCEFbits_Data){
  1760  0000F2  5122               	movf	34,w,b	;volatile
  1761  0000F4  B4D8               	btfsc	status,2,c
  1762  0000F6  EF7F  F000         	goto	i2u43_41
  1763  0000FA  EF81  F000         	goto	i2u43_40
  1764  0000FE                     i2u43_41:
  1765  0000FE  EFBF  F000         	goto	i2l399
  1766  000102                     i2u43_40:
  1767  000102  EF8C  F000         	goto	i2l1388
  1768  000106                     i2l401:
  1769                           
  1770                           ; BSR set to: 15
  1771                           ;main.c: 135:                 IOCEFbits.IOCEF0 = 0;
  1772  000106  9122               	bcf	34,0,b	;volatile
  1773                           
  1774                           ;main.c: 136:                 return;
  1775  000108  EFFB  F000         	goto	i2l385
  1776  00010C                     i2l402:
  1777                           
  1778                           ; BSR set to: 15
  1779                           ;main.c: 138:                 IOCEFbits.IOCEF1 = 0;
  1780  00010C  9322               	bcf	34,1,b	;volatile
  1781                           
  1782                           ;main.c: 139:                 return;
  1783  00010E  EFFB  F000         	goto	i2l385
  1784  000112                     i2l403:
  1785                           
  1786                           ; BSR set to: 15
  1787                           ;main.c: 141:                 IOCEFbits.IOCEF2 = 0;
  1788  000112  9522               	bcf	34,2,b	;volatile
  1789                           
  1790                           ;main.c: 142:                 return;
  1791  000114  EFFB  F000         	goto	i2l385
  1792  000118                     i2l1388:
  1793                           
  1794                           ; BSR set to: 15
  1795  000118  5122               	movf	34,w,b	;volatile
  1796  00011A  6E17               	movwf	??_INTERRUPT_InterruptManager^0,c
  1797  00011C  6A18               	clrf	(??_INTERRUPT_InterruptManager+1)^0,c
  1798                           
  1799                           ; Switch on 2 bytes has been partitioned into a top level switch of size 1, and 1 sub-sw
      +                          itches
  1800                           ; Switch size 1, requested type "simple"
  1801                           ; Number of cases is 1, Range of values is 0 to 0
  1802                           ; switch strategies available:
  1803                           ; Name         Instructions Cycles
  1804                           ; simple_byte            4     3 (average)
  1805                           ;	Chosen strategy is simple_byte
  1806  00011E  5018               	movf	(??_INTERRUPT_InterruptManager+1)^0,w,c
  1807  000120  0A00               	xorlw	0	; case 0
  1808  000122  B4D8               	btfsc	status,2,c
  1809  000124  EF96  F000         	goto	i2l1760
  1810  000128  EFA5  F000         	goto	i2l405
  1811  00012C                     i2l1760:
  1812                           
  1813                           ; BSR set to: 15
  1814                           ; Switch size 1, requested type "simple"
  1815                           ; Number of cases is 3, Range of values is 1 to 4
  1816                           ; switch strategies available:
  1817                           ; Name         Instructions Cycles
  1818                           ; simple_byte           10     6 (average)
  1819                           ;	Chosen strategy is simple_byte
  1820  00012C  5017               	movf	??_INTERRUPT_InterruptManager^0,w,c
  1821  00012E  0A01               	xorlw	1	; case 1
  1822  000130  B4D8               	btfsc	status,2,c
  1823  000132  EF83  F000         	goto	i2l401
  1824  000136  0A03               	xorlw	3	; case 2
  1825  000138  B4D8               	btfsc	status,2,c
  1826  00013A  EF86  F000         	goto	i2l402
  1827  00013E  0A06               	xorlw	6	; case 4
  1828  000140  B4D8               	btfsc	status,2,c
  1829  000142  EF89  F000         	goto	i2l403
  1830  000146  EFA5  F000         	goto	i2l405
  1831  00014A                     i2l405:
  1832                           
  1833                           ; BSR set to: 15
  1834                           ;main.c: 147:         if(IOCEFbits.IOCEF0 == 1)
  1835  00014A  A122               	btfss	34,0,b	;volatile
  1836  00014C  EFAA  F000         	goto	i2u44_41
  1837  000150  EFAC  F000         	goto	i2u44_40
  1838  000154                     i2u44_41:
  1839  000154  EFAD  F000         	goto	i2l406
  1840  000158                     i2u44_40:
  1841  000158                     
  1842                           ; BSR set to: 15
  1843                           ;main.c: 148:         {;main.c: 149:             IOCEFbits.IOCEF0 = 0;
  1844  000158  9122               	bcf	34,0,b	;volatile
  1845  00015A                     i2l406:
  1846                           
  1847                           ; BSR set to: 15
  1848                           ;main.c: 151:         if(IOCEFbits.IOCEF1 == 1)
  1849  00015A  A322               	btfss	34,1,b	;volatile
  1850  00015C  EFB2  F000         	goto	i2u45_41
  1851  000160  EFB4  F000         	goto	i2u45_40
  1852  000164                     i2u45_41:
  1853  000164  EFB5  F000         	goto	i2l407
  1854  000168                     i2u45_40:
  1855  000168                     
  1856                           ; BSR set to: 15
  1857                           ;main.c: 152:         {;main.c: 153:             IOCEFbits.IOCEF1 = 0;
  1858  000168  9322               	bcf	34,1,b	;volatile
  1859  00016A                     i2l407:
  1860                           
  1861                           ; BSR set to: 15
  1862                           ;main.c: 155:         if(IOCEFbits.IOCEF2 == 1)
  1863  00016A  A522               	btfss	34,2,b	;volatile
  1864  00016C  EFBA  F000         	goto	i2u46_41
  1865  000170  EFBC  F000         	goto	i2u46_40
  1866  000174                     i2u46_41:
  1867  000174  EFBD  F000         	goto	i2l1396
  1868  000178                     i2u46_40:
  1869  000178                     
  1870                           ; BSR set to: 15
  1871                           ;main.c: 156:         {;main.c: 157:             IOCEFbits.IOCEF2 = 0;
  1872  000178  9522               	bcf	34,2,b	;volatile
  1873  00017A                     i2l1396:
  1874                           
  1875                           ; BSR set to: 15
  1876                           ;main.c: 159:         IOCEFbits_Data = 0;
  1877  00017A  0E00               	movlw	0
  1878  00017C  6F22               	movwf	34,b	;volatile
  1879  00017E                     i2l399:
  1880                           
  1881                           ; BSR set to: 15
  1882                           ;main.c: 162:     if(IOCCFbits_Data){
  1883  00017E  5115               	movf	21,w,b	;volatile
  1884  000180  B4D8               	btfsc	status,2,c
  1885  000182  EFC5  F000         	goto	i2u47_41
  1886  000186  EFC7  F000         	goto	i2u47_40
  1887  00018A                     i2u47_41:
  1888  00018A  EFFB  F000         	goto	i2l385
  1889  00018E                     i2u47_40:
  1890  00018E  EFD1  F000         	goto	i2l1406
  1891  000192                     i2l411:
  1892                           
  1893                           ; BSR set to: 15
  1894                           ;main.c: 165:                 IOCCFbits.IOCCF0 = 0;
  1895  000192  9115               	bcf	21,0,b	;volatile
  1896                           
  1897                           ;main.c: 166:                 return;
  1898  000194  EFFB  F000         	goto	i2l385
  1899  000198                     i2l412:
  1900                           
  1901                           ; BSR set to: 15
  1902                           ;main.c: 168:                 IOCCFbits.IOCCF1 = 0;
  1903  000198  9315               	bcf	21,1,b	;volatile
  1904  00019A                     
  1905                           ; BSR set to: 15
  1906                           ;main.c: 169:                 Local_IOCCF4_ISR();
  1907  00019A  ECE6  F001         	call	_Local_IOCCF4_ISR	;wreg free
  1908  00019E  EFFB  F000         	goto	i2l385
  1909  0001A2                     i2l1406:
  1910                           
  1911                           ; BSR set to: 15
  1912  0001A2  5115               	movf	21,w,b	;volatile
  1913  0001A4  6E17               	movwf	??_INTERRUPT_InterruptManager^0,c
  1914  0001A6  6A18               	clrf	(??_INTERRUPT_InterruptManager+1)^0,c
  1915                           
  1916                           ; Switch on 2 bytes has been partitioned into a top level switch of size 1, and 1 sub-sw
      +                          itches
  1917                           ; Switch size 1, requested type "simple"
  1918                           ; Number of cases is 1, Range of values is 0 to 0
  1919                           ; switch strategies available:
  1920                           ; Name         Instructions Cycles
  1921                           ; simple_byte            4     3 (average)
  1922                           ;	Chosen strategy is simple_byte
  1923  0001A8  5018               	movf	(??_INTERRUPT_InterruptManager+1)^0,w,c
  1924  0001AA  0A00               	xorlw	0	; case 0
  1925  0001AC  B4D8               	btfsc	status,2,c
  1926  0001AE  EFDB  F000         	goto	i2l1762
  1927  0001B2  EFE6  F000         	goto	i2l414
  1928  0001B6                     i2l1762:
  1929                           
  1930                           ; BSR set to: 15
  1931                           ; Switch size 1, requested type "simple"
  1932                           ; Number of cases is 2, Range of values is 1 to 2
  1933                           ; switch strategies available:
  1934                           ; Name         Instructions Cycles
  1935                           ; simple_byte            7     4 (average)
  1936                           ;	Chosen strategy is simple_byte
  1937  0001B6  5017               	movf	??_INTERRUPT_InterruptManager^0,w,c
  1938  0001B8  0A01               	xorlw	1	; case 1
  1939  0001BA  B4D8               	btfsc	status,2,c
  1940  0001BC  EFC9  F000         	goto	i2l411
  1941  0001C0  0A03               	xorlw	3	; case 2
  1942  0001C2  B4D8               	btfsc	status,2,c
  1943  0001C4  EFCC  F000         	goto	i2l412
  1944  0001C8  EFE6  F000         	goto	i2l414
  1945  0001CC                     i2l414:
  1946                           
  1947                           ; BSR set to: 15
  1948                           ;main.c: 175:         if(IOCCFbits.IOCCF0 == 1)
  1949  0001CC  A115               	btfss	21,0,b	;volatile
  1950  0001CE  EFEB  F000         	goto	i2u48_41
  1951  0001D2  EFED  F000         	goto	i2u48_40
  1952  0001D6                     i2u48_41:
  1953  0001D6  EFEE  F000         	goto	i2l415
  1954  0001DA                     i2u48_40:
  1955  0001DA                     
  1956                           ; BSR set to: 15
  1957                           ;main.c: 176:         {;main.c: 177:             IOCCFbits.IOCCF0 = 0;
  1958  0001DA  9115               	bcf	21,0,b	;volatile
  1959  0001DC                     i2l415:
  1960                           
  1961                           ; BSR set to: 15
  1962                           ;main.c: 179:         if(IOCCFbits.IOCCF1 == 1)
  1963  0001DC  A315               	btfss	21,1,b	;volatile
  1964  0001DE  EFF3  F000         	goto	i2u49_41
  1965  0001E2  EFF5  F000         	goto	i2u49_40
  1966  0001E6                     i2u49_41:
  1967  0001E6  EFF8  F000         	goto	i2l1414
  1968  0001EA                     i2u49_40:
  1969  0001EA                     
  1970                           ; BSR set to: 15
  1971                           ;main.c: 180:         {;main.c: 181:             IOCCFbits.IOCCF1 = 0;
  1972  0001EA  9315               	bcf	21,1,b	;volatile
  1973  0001EC                     
  1974                           ; BSR set to: 15
  1975                           ;main.c: 182:             Local_IOCCF4_ISR();
  1976  0001EC  ECE6  F001         	call	_Local_IOCCF4_ISR	;wreg free
  1977  0001F0                     i2l1414:
  1978                           
  1979                           ;main.c: 185:         IOCCFbits_Data = 0;
  1980  0001F0  0E00               	movlw	0
  1981  0001F2  010F               	movlb	15	; () banked
  1982  0001F4  6F15               	movwf	21,b	;volatile
  1983  0001F6                     i2l385:
  1984  0001F6  921D               	bcf	int$flags,1,c	;clear compiler interrupt flag (level 2)
  1985  0001F8  0011               	retfie		f
  1986  0001FA                     __end_of_INTERRUPT_InterruptManager:
  1987                           	callstack 0
  1988                           
  1989 ;; *************** function _Local_IOCCF4_ISR *****************
  1990 ;; Defined at:
  1991 ;;		line 55 in file "main.c"
  1992 ;; Parameters:    Size  Location     Type
  1993 ;;		None
  1994 ;; Auto vars:     Size  Location     Type
  1995 ;;		None
  1996 ;; Return value:  Size  Location     Type
  1997 ;;                  1    wreg      void 
  1998 ;; Registers used:
  1999 ;;		None
  2000 ;; Tracked objects:
  2001 ;;		On entry : 0/0
  2002 ;;		On exit  : 0/0
  2003 ;;		Unchanged: 0/0
  2004 ;; Data sizes:     COMRAM   BANK0   BANK1   BANK2   BANK3   BANK4   BANK5   BANK6   BANK7
  2005 ;;      Params:         0       0       0       0       0       0       0       0       0
  2006 ;;      Locals:         0       0       0       0       0       0       0       0       0
  2007 ;;      Temps:          0       0       0       0       0       0       0       0       0
  2008 ;;      Totals:         0       0       0       0       0       0       0       0       0
  2009 ;;Total ram usage:        0 bytes
  2010 ;; Hardware stack levels used:    1
  2011 ;; This function calls:
  2012 ;;		Nothing
  2013 ;; This function is called by:
  2014 ;;		_INTERRUPT_InterruptManager
  2015 ;; This function uses a non-reentrant model
  2016 ;;
  2017                           
  2018                           	psect	text19
  2019  0003CC                     __ptext19:
  2020                           	callstack 0
  2021  0003CC                     _Local_IOCCF4_ISR:
  2022                           	callstack 26
  2023  0003CC                     
  2024                           ;main.c: 60:     RD2 = ~RD2;
  2025  0003CC  A48F               	btfss	3983,2,c	;volatile
  2026  0003CE  EFEB  F001         	goto	i2u1_41
  2027  0003D2  EFEE  F001         	goto	i2u1_40
  2028  0003D6                     i2u1_41:
  2029  0003D6  848F               	bsf	3983,2,c	;volatile
  2030  0003D8  EFEF  F001         	goto	i2u2_45
  2031  0003DC                     i2u1_40:
  2032  0003DC  948F               	bcf	3983,2,c	;volatile
  2033  0003DE                     i2u2_45:
  2034  0003DE  0012               	return		;funcret
  2035  0003E0                     __end_of_Local_IOCCF4_ISR:
  2036                           	callstack 0
  2037  0000                     
  2038                           	psect	rparam
  2039  0000                     
  2040                           	psect	temp
  2041  00001D                     btemp:
  2042                           	callstack 0
  2043  00001D                     	ds	1
  2044  0000                     int$flags	set	btemp
  2045  0000                     wtemp8	set	btemp+1
  2046  0000                     ttemp5	set	btemp+1
  2047  0000                     ttemp6	set	btemp+4
  2048  0000                     ttemp7	set	btemp+8
  2049                           
  2050                           	psect	idloc
  2051                           
  2052                           ;Config register IDLOC0 @ 0x200000
  2053                           ;	unspecified, using default values
  2054  200000                     	org	2097152
  2055  200000  FFFF               	dw	65535
  2056                           
  2057                           ;Config register IDLOC1 @ 0x200002
  2058                           ;	unspecified, using default values
  2059  200002                     	org	2097154
  2060  200002  FFFF               	dw	65535
  2061                           
  2062                           ;Config register IDLOC2 @ 0x200004
  2063                           ;	unspecified, using default values
  2064  200004                     	org	2097156
  2065  200004  FFFF               	dw	65535
  2066                           
  2067                           ;Config register IDLOC3 @ 0x200006
  2068                           ;	unspecified, using default values
  2069  200006                     	org	2097158
  2070  200006  FFFF               	dw	65535
  2071                           
  2072                           ;Config register IDLOC4 @ 0x200008
  2073                           ;	unspecified, using default values
  2074  200008                     	org	2097160
  2075  200008  FFFF               	dw	65535
  2076                           
  2077                           ;Config register IDLOC5 @ 0x20000A
  2078                           ;	unspecified, using default values
  2079  20000A                     	org	2097162
  2080  20000A  FFFF               	dw	65535
  2081                           
  2082                           ;Config register IDLOC6 @ 0x20000C
  2083                           ;	unspecified, using default values
  2084  20000C                     	org	2097164
  2085  20000C  FFFF               	dw	65535
  2086                           
  2087                           ;Config register IDLOC7 @ 0x20000E
  2088                           ;	unspecified, using default values
  2089  20000E                     	org	2097166
  2090  20000E  FFFF               	dw	65535
  2091                           
  2092                           ;Config register IDLOC8 @ 0x200010
  2093                           ;	unspecified, using default values
  2094  200010                     	org	2097168
  2095  200010  FFFF               	dw	65535
  2096                           
  2097                           ;Config register IDLOC9 @ 0x200012
  2098                           ;	unspecified, using default values
  2099  200012                     	org	2097170
  2100  200012  FFFF               	dw	65535
  2101                           
  2102                           ;Config register IDLOC10 @ 0x200014
  2103                           ;	unspecified, using default values
  2104  200014                     	org	2097172
  2105  200014  FFFF               	dw	65535
  2106                           
  2107                           ;Config register IDLOC11 @ 0x200016
  2108                           ;	unspecified, using default values
  2109  200016                     	org	2097174
  2110  200016  FFFF               	dw	65535
  2111                           
  2112                           ;Config register IDLOC12 @ 0x200018
  2113                           ;	unspecified, using default values
  2114  200018                     	org	2097176
  2115  200018  FFFF               	dw	65535
  2116                           
  2117                           ;Config register IDLOC13 @ 0x20001A
  2118                           ;	unspecified, using default values
  2119  20001A                     	org	2097178
  2120  20001A  FFFF               	dw	65535
  2121                           
  2122                           ;Config register IDLOC14 @ 0x20001C
  2123                           ;	unspecified, using default values
  2124  20001C                     	org	2097180
  2125  20001C  FFFF               	dw	65535
  2126                           
  2127                           ;Config register IDLOC15 @ 0x20001E
  2128                           ;	unspecified, using default values
  2129  20001E                     	org	2097182
  2130  20001E  FFFF               	dw	65535
  2131                           
  2132                           ;Config register IDLOC16 @ 0x200020
  2133                           ;	unspecified, using default values
  2134  200020                     	org	2097184
  2135  200020  FFFF               	dw	65535
  2136                           
  2137                           ;Config register IDLOC17 @ 0x200022
  2138                           ;	unspecified, using default values
  2139  200022                     	org	2097186
  2140  200022  FFFF               	dw	65535
  2141                           
  2142                           ;Config register IDLOC18 @ 0x200024
  2143                           ;	unspecified, using default values
  2144  200024                     	org	2097188
  2145  200024  FFFF               	dw	65535
  2146                           
  2147                           ;Config register IDLOC19 @ 0x200026
  2148                           ;	unspecified, using default values
  2149  200026                     	org	2097190
  2150  200026  FFFF               	dw	65535
  2151                           
  2152                           ;Config register IDLOC20 @ 0x200028
  2153                           ;	unspecified, using default values
  2154  200028                     	org	2097192
  2155  200028  FFFF               	dw	65535
  2156                           
  2157                           ;Config register IDLOC21 @ 0x20002A
  2158                           ;	unspecified, using default values
  2159  20002A                     	org	2097194
  2160  20002A  FFFF               	dw	65535
  2161                           
  2162                           ;Config register IDLOC22 @ 0x20002C
  2163                           ;	unspecified, using default values
  2164  20002C                     	org	2097196
  2165  20002C  FFFF               	dw	65535
  2166                           
  2167                           ;Config register IDLOC23 @ 0x20002E
  2168                           ;	unspecified, using default values
  2169  20002E                     	org	2097198
  2170  20002E  FFFF               	dw	65535
  2171                           
  2172                           ;Config register IDLOC24 @ 0x200030
  2173                           ;	unspecified, using default values
  2174  200030                     	org	2097200
  2175  200030  FFFF               	dw	65535
  2176                           
  2177                           ;Config register IDLOC25 @ 0x200032
  2178                           ;	unspecified, using default values
  2179  200032                     	org	2097202
  2180  200032  FFFF               	dw	65535
  2181                           
  2182                           ;Config register IDLOC26 @ 0x200034
  2183                           ;	unspecified, using default values
  2184  200034                     	org	2097204
  2185  200034  FFFF               	dw	65535
  2186                           
  2187                           ;Config register IDLOC27 @ 0x200036
  2188                           ;	unspecified, using default values
  2189  200036                     	org	2097206
  2190  200036  FFFF               	dw	65535
  2191                           
  2192                           ;Config register IDLOC28 @ 0x200038
  2193                           ;	unspecified, using default values
  2194  200038                     	org	2097208
  2195  200038  FFFF               	dw	65535
  2196                           
  2197                           ;Config register IDLOC29 @ 0x20003A
  2198                           ;	unspecified, using default values
  2199  20003A                     	org	2097210
  2200  20003A  FFFF               	dw	65535
  2201                           
  2202                           ;Config register IDLOC30 @ 0x20003C
  2203                           ;	unspecified, using default values
  2204  20003C                     	org	2097212
  2205  20003C  FFFF               	dw	65535
  2206                           
  2207                           ;Config register IDLOC31 @ 0x20003E
  2208                           ;	unspecified, using default values
  2209  20003E                     	org	2097214
  2210  20003E  FFFF               	dw	65535
  2211                           
  2212                           ;Config register IDLOC32 @ 0x200040
  2213                           ;	unspecified, using default values
  2214  200040                     	org	2097216
  2215  200040  FFFF               	dw	65535
  2216                           
  2217                           ;Config register IDLOC33 @ 0x200042
  2218                           ;	unspecified, using default values
  2219  200042                     	org	2097218
  2220  200042  FFFF               	dw	65535
  2221                           
  2222                           ;Config register IDLOC34 @ 0x200044
  2223                           ;	unspecified, using default values
  2224  200044                     	org	2097220
  2225  200044  FFFF               	dw	65535
  2226                           
  2227                           ;Config register IDLOC35 @ 0x200046
  2228                           ;	unspecified, using default values
  2229  200046                     	org	2097222
  2230  200046  FFFF               	dw	65535
  2231                           
  2232                           ;Config register IDLOC36 @ 0x200048
  2233                           ;	unspecified, using default values
  2234  200048                     	org	2097224
  2235  200048  FFFF               	dw	65535
  2236                           
  2237                           ;Config register IDLOC37 @ 0x20004A
  2238                           ;	unspecified, using default values
  2239  20004A                     	org	2097226
  2240  20004A  FFFF               	dw	65535
  2241                           
  2242                           ;Config register IDLOC38 @ 0x20004C
  2243                           ;	unspecified, using default values
  2244  20004C                     	org	2097228
  2245  20004C  FFFF               	dw	65535
  2246                           
  2247                           ;Config register IDLOC39 @ 0x20004E
  2248                           ;	unspecified, using default values
  2249  20004E                     	org	2097230
  2250  20004E  FFFF               	dw	65535
  2251                           
  2252                           ;Config register IDLOC40 @ 0x200050
  2253                           ;	unspecified, using default values
  2254  200050                     	org	2097232
  2255  200050  FFFF               	dw	65535
  2256                           
  2257                           ;Config register IDLOC41 @ 0x200052
  2258                           ;	unspecified, using default values
  2259  200052                     	org	2097234
  2260  200052  FFFF               	dw	65535
  2261                           
  2262                           ;Config register IDLOC42 @ 0x200054
  2263                           ;	unspecified, using default values
  2264  200054                     	org	2097236
  2265  200054  FFFF               	dw	65535
  2266                           
  2267                           ;Config register IDLOC43 @ 0x200056
  2268                           ;	unspecified, using default values
  2269  200056                     	org	2097238
  2270  200056  FFFF               	dw	65535
  2271                           
  2272                           ;Config register IDLOC44 @ 0x200058
  2273                           ;	unspecified, using default values
  2274  200058                     	org	2097240
  2275  200058  FFFF               	dw	65535
  2276                           
  2277                           ;Config register IDLOC45 @ 0x20005A
  2278                           ;	unspecified, using default values
  2279  20005A                     	org	2097242
  2280  20005A  FFFF               	dw	65535
  2281                           
  2282                           ;Config register IDLOC46 @ 0x20005C
  2283                           ;	unspecified, using default values
  2284  20005C                     	org	2097244
  2285  20005C  FFFF               	dw	65535
  2286                           
  2287                           ;Config register IDLOC47 @ 0x20005E
  2288                           ;	unspecified, using default values
  2289  20005E                     	org	2097246
  2290  20005E  FFFF               	dw	65535
  2291                           
  2292                           ;Config register IDLOC48 @ 0x200060
  2293                           ;	unspecified, using default values
  2294  200060                     	org	2097248
  2295  200060  FFFF               	dw	65535
  2296                           
  2297                           ;Config register IDLOC49 @ 0x200062
  2298                           ;	unspecified, using default values
  2299  200062                     	org	2097250
  2300  200062  FFFF               	dw	65535
  2301                           
  2302                           ;Config register IDLOC50 @ 0x200064
  2303                           ;	unspecified, using default values
  2304  200064                     	org	2097252
  2305  200064  FFFF               	dw	65535
  2306                           
  2307                           ;Config register IDLOC51 @ 0x200066
  2308                           ;	unspecified, using default values
  2309  200066                     	org	2097254
  2310  200066  FFFF               	dw	65535
  2311                           
  2312                           ;Config register IDLOC52 @ 0x200068
  2313                           ;	unspecified, using default values
  2314  200068                     	org	2097256
  2315  200068  FFFF               	dw	65535
  2316                           
  2317                           ;Config register IDLOC53 @ 0x20006A
  2318                           ;	unspecified, using default values
  2319  20006A                     	org	2097258
  2320  20006A  FFFF               	dw	65535
  2321                           
  2322                           ;Config register IDLOC54 @ 0x20006C
  2323                           ;	unspecified, using default values
  2324  20006C                     	org	2097260
  2325  20006C  FFFF               	dw	65535
  2326                           
  2327                           ;Config register IDLOC55 @ 0x20006E
  2328                           ;	unspecified, using default values
  2329  20006E                     	org	2097262
  2330  20006E  FFFF               	dw	65535
  2331                           
  2332                           ;Config register IDLOC56 @ 0x200070
  2333                           ;	unspecified, using default values
  2334  200070                     	org	2097264
  2335  200070  FFFF               	dw	65535
  2336                           
  2337                           ;Config register IDLOC57 @ 0x200072
  2338                           ;	unspecified, using default values
  2339  200072                     	org	2097266
  2340  200072  FFFF               	dw	65535
  2341                           
  2342                           ;Config register IDLOC58 @ 0x200074
  2343                           ;	unspecified, using default values
  2344  200074                     	org	2097268
  2345  200074  FFFF               	dw	65535
  2346                           
  2347                           ;Config register IDLOC59 @ 0x200076
  2348                           ;	unspecified, using default values
  2349  200076                     	org	2097270
  2350  200076  FFFF               	dw	65535
  2351                           
  2352                           ;Config register IDLOC60 @ 0x200078
  2353                           ;	unspecified, using default values
  2354  200078                     	org	2097272
  2355  200078  FFFF               	dw	65535
  2356                           
  2357                           ;Config register IDLOC61 @ 0x20007A
  2358                           ;	unspecified, using default values
  2359  20007A                     	org	2097274
  2360  20007A  FFFF               	dw	65535
  2361                           
  2362                           ;Config register IDLOC62 @ 0x20007C
  2363                           ;	unspecified, using default values
  2364  20007C                     	org	2097276
  2365  20007C  FFFF               	dw	65535
  2366                           
  2367                           ;Config register IDLOC63 @ 0x20007E
  2368                           ;	unspecified, using default values
  2369  20007E                     	org	2097278
  2370  20007E  FFFF               	dw	65535
  2371                           
  2372                           ;Config register IDLOC64 @ 0x200080
  2373                           ;	unspecified, using default values
  2374  200080                     	org	2097280
  2375  200080  FFFF               	dw	65535
  2376                           
  2377                           ;Config register IDLOC65 @ 0x200082
  2378                           ;	unspecified, using default values
  2379  200082                     	org	2097282
  2380  200082  FFFF               	dw	65535
  2381                           
  2382                           ;Config register IDLOC66 @ 0x200084
  2383                           ;	unspecified, using default values
  2384  200084                     	org	2097284
  2385  200084  FFFF               	dw	65535
  2386                           
  2387                           ;Config register IDLOC67 @ 0x200086
  2388                           ;	unspecified, using default values
  2389  200086                     	org	2097286
  2390  200086  FFFF               	dw	65535
  2391                           
  2392                           ;Config register IDLOC68 @ 0x200088
  2393                           ;	unspecified, using default values
  2394  200088                     	org	2097288
  2395  200088  FFFF               	dw	65535
  2396                           
  2397                           ;Config register IDLOC69 @ 0x20008A
  2398                           ;	unspecified, using default values
  2399  20008A                     	org	2097290
  2400  20008A  FFFF               	dw	65535
  2401                           
  2402                           ;Config register IDLOC70 @ 0x20008C
  2403                           ;	unspecified, using default values
  2404  20008C                     	org	2097292
  2405  20008C  FFFF               	dw	65535
  2406                           
  2407                           ;Config register IDLOC71 @ 0x20008E
  2408                           ;	unspecified, using default values
  2409  20008E                     	org	2097294
  2410  20008E  FFFF               	dw	65535
  2411                           
  2412                           ;Config register IDLOC72 @ 0x200090
  2413                           ;	unspecified, using default values
  2414  200090                     	org	2097296
  2415  200090  FFFF               	dw	65535
  2416                           
  2417                           ;Config register IDLOC73 @ 0x200092
  2418                           ;	unspecified, using default values
  2419  200092                     	org	2097298
  2420  200092  FFFF               	dw	65535
  2421                           
  2422                           ;Config register IDLOC74 @ 0x200094
  2423                           ;	unspecified, using default values
  2424  200094                     	org	2097300
  2425  200094  FFFF               	dw	65535
  2426                           
  2427                           ;Config register IDLOC75 @ 0x200096
  2428                           ;	unspecified, using default values
  2429  200096                     	org	2097302
  2430  200096  FFFF               	dw	65535
  2431                           
  2432                           ;Config register IDLOC76 @ 0x200098
  2433                           ;	unspecified, using default values
  2434  200098                     	org	2097304
  2435  200098  FFFF               	dw	65535
  2436                           
  2437                           ;Config register IDLOC77 @ 0x20009A
  2438                           ;	unspecified, using default values
  2439  20009A                     	org	2097306
  2440  20009A  FFFF               	dw	65535
  2441                           
  2442                           ;Config register IDLOC78 @ 0x20009C
  2443                           ;	unspecified, using default values
  2444  20009C                     	org	2097308
  2445  20009C  FFFF               	dw	65535
  2446                           
  2447                           ;Config register IDLOC79 @ 0x20009E
  2448                           ;	unspecified, using default values
  2449  20009E                     	org	2097310
  2450  20009E  FFFF               	dw	65535
  2451                           
  2452                           ;Config register IDLOC80 @ 0x2000A0
  2453                           ;	unspecified, using default values
  2454  2000A0                     	org	2097312
  2455  2000A0  FFFF               	dw	65535
  2456                           
  2457                           ;Config register IDLOC81 @ 0x2000A2
  2458                           ;	unspecified, using default values
  2459  2000A2                     	org	2097314
  2460  2000A2  FFFF               	dw	65535
  2461                           
  2462                           ;Config register IDLOC82 @ 0x2000A4
  2463                           ;	unspecified, using default values
  2464  2000A4                     	org	2097316
  2465  2000A4  FFFF               	dw	65535
  2466                           
  2467                           ;Config register IDLOC83 @ 0x2000A6
  2468                           ;	unspecified, using default values
  2469  2000A6                     	org	2097318
  2470  2000A6  FFFF               	dw	65535
  2471                           
  2472                           ;Config register IDLOC84 @ 0x2000A8
  2473                           ;	unspecified, using default values
  2474  2000A8                     	org	2097320
  2475  2000A8  FFFF               	dw	65535
  2476                           
  2477                           ;Config register IDLOC85 @ 0x2000AA
  2478                           ;	unspecified, using default values
  2479  2000AA                     	org	2097322
  2480  2000AA  FFFF               	dw	65535
  2481                           
  2482                           ;Config register IDLOC86 @ 0x2000AC
  2483                           ;	unspecified, using default values
  2484  2000AC                     	org	2097324
  2485  2000AC  FFFF               	dw	65535
  2486                           
  2487                           ;Config register IDLOC87 @ 0x2000AE
  2488                           ;	unspecified, using default values
  2489  2000AE                     	org	2097326
  2490  2000AE  FFFF               	dw	65535
  2491                           
  2492                           ;Config register IDLOC88 @ 0x2000B0
  2493                           ;	unspecified, using default values
  2494  2000B0                     	org	2097328
  2495  2000B0  FFFF               	dw	65535
  2496                           
  2497                           ;Config register IDLOC89 @ 0x2000B2
  2498                           ;	unspecified, using default values
  2499  2000B2                     	org	2097330
  2500  2000B2  FFFF               	dw	65535
  2501                           
  2502                           ;Config register IDLOC90 @ 0x2000B4
  2503                           ;	unspecified, using default values
  2504  2000B4                     	org	2097332
  2505  2000B4  FFFF               	dw	65535
  2506                           
  2507                           ;Config register IDLOC91 @ 0x2000B6
  2508                           ;	unspecified, using default values
  2509  2000B6                     	org	2097334
  2510  2000B6  FFFF               	dw	65535
  2511                           
  2512                           ;Config register IDLOC92 @ 0x2000B8
  2513                           ;	unspecified, using default values
  2514  2000B8                     	org	2097336
  2515  2000B8  FFFF               	dw	65535
  2516                           
  2517                           ;Config register IDLOC93 @ 0x2000BA
  2518                           ;	unspecified, using default values
  2519  2000BA                     	org	2097338
  2520  2000BA  FFFF               	dw	65535
  2521                           
  2522                           ;Config register IDLOC94 @ 0x2000BC
  2523                           ;	unspecified, using default values
  2524  2000BC                     	org	2097340
  2525  2000BC  FFFF               	dw	65535
  2526                           
  2527                           ;Config register IDLOC95 @ 0x2000BE
  2528                           ;	unspecified, using default values
  2529  2000BE                     	org	2097342
  2530  2000BE  FFFF               	dw	65535
  2531                           
  2532                           ;Config register IDLOC96 @ 0x2000C0
  2533                           ;	unspecified, using default values
  2534  2000C0                     	org	2097344
  2535  2000C0  FFFF               	dw	65535
  2536                           
  2537                           ;Config register IDLOC97 @ 0x2000C2
  2538                           ;	unspecified, using default values
  2539  2000C2                     	org	2097346
  2540  2000C2  FFFF               	dw	65535
  2541                           
  2542                           ;Config register IDLOC98 @ 0x2000C4
  2543                           ;	unspecified, using default values
  2544  2000C4                     	org	2097348
  2545  2000C4  FFFF               	dw	65535
  2546                           
  2547                           ;Config register IDLOC99 @ 0x2000C6
  2548                           ;	unspecified, using default values
  2549  2000C6                     	org	2097350
  2550  2000C6  FFFF               	dw	65535
  2551                           
  2552                           ;Config register IDLOC100 @ 0x2000C8
  2553                           ;	unspecified, using default values
  2554  2000C8                     	org	2097352
  2555  2000C8  FFFF               	dw	65535
  2556                           
  2557                           ;Config register IDLOC101 @ 0x2000CA
  2558                           ;	unspecified, using default values
  2559  2000CA                     	org	2097354
  2560  2000CA  FFFF               	dw	65535
  2561                           
  2562                           ;Config register IDLOC102 @ 0x2000CC
  2563                           ;	unspecified, using default values
  2564  2000CC                     	org	2097356
  2565  2000CC  FFFF               	dw	65535
  2566                           
  2567                           ;Config register IDLOC103 @ 0x2000CE
  2568                           ;	unspecified, using default values
  2569  2000CE                     	org	2097358
  2570  2000CE  FFFF               	dw	65535
  2571                           
  2572                           ;Config register IDLOC104 @ 0x2000D0
  2573                           ;	unspecified, using default values
  2574  2000D0                     	org	2097360
  2575  2000D0  FFFF               	dw	65535
  2576                           
  2577                           ;Config register IDLOC105 @ 0x2000D2
  2578                           ;	unspecified, using default values
  2579  2000D2                     	org	2097362
  2580  2000D2  FFFF               	dw	65535
  2581                           
  2582                           ;Config register IDLOC106 @ 0x2000D4
  2583                           ;	unspecified, using default values
  2584  2000D4                     	org	2097364
  2585  2000D4  FFFF               	dw	65535
  2586                           
  2587                           ;Config register IDLOC107 @ 0x2000D6
  2588                           ;	unspecified, using default values
  2589  2000D6                     	org	2097366
  2590  2000D6  FFFF               	dw	65535
  2591                           
  2592                           ;Config register IDLOC108 @ 0x2000D8
  2593                           ;	unspecified, using default values
  2594  2000D8                     	org	2097368
  2595  2000D8  FFFF               	dw	65535
  2596                           
  2597                           ;Config register IDLOC109 @ 0x2000DA
  2598                           ;	unspecified, using default values
  2599  2000DA                     	org	2097370
  2600  2000DA  FFFF               	dw	65535
  2601                           
  2602                           ;Config register IDLOC110 @ 0x2000DC
  2603                           ;	unspecified, using default values
  2604  2000DC                     	org	2097372
  2605  2000DC  FFFF               	dw	65535
  2606                           
  2607                           ;Config register IDLOC111 @ 0x2000DE
  2608                           ;	unspecified, using default values
  2609  2000DE                     	org	2097374
  2610  2000DE  FFFF               	dw	65535
  2611                           
  2612                           ;Config register IDLOC112 @ 0x2000E0
  2613                           ;	unspecified, using default values
  2614  2000E0                     	org	2097376
  2615  2000E0  FFFF               	dw	65535
  2616                           
  2617                           ;Config register IDLOC113 @ 0x2000E2
  2618                           ;	unspecified, using default values
  2619  2000E2                     	org	2097378
  2620  2000E2  FFFF               	dw	65535
  2621                           
  2622                           ;Config register IDLOC114 @ 0x2000E4
  2623                           ;	unspecified, using default values
  2624  2000E4                     	org	2097380
  2625  2000E4  FFFF               	dw	65535
  2626                           
  2627                           ;Config register IDLOC115 @ 0x2000E6
  2628                           ;	unspecified, using default values
  2629  2000E6                     	org	2097382
  2630  2000E6  FFFF               	dw	65535
  2631                           
  2632                           ;Config register IDLOC116 @ 0x2000E8
  2633                           ;	unspecified, using default values
  2634  2000E8                     	org	2097384
  2635  2000E8  FFFF               	dw	65535
  2636                           
  2637                           ;Config register IDLOC117 @ 0x2000EA
  2638                           ;	unspecified, using default values
  2639  2000EA                     	org	2097386
  2640  2000EA  FFFF               	dw	65535
  2641                           
  2642                           ;Config register IDLOC118 @ 0x2000EC
  2643                           ;	unspecified, using default values
  2644  2000EC                     	org	2097388
  2645  2000EC  FFFF               	dw	65535
  2646                           
  2647                           ;Config register IDLOC119 @ 0x2000EE
  2648                           ;	unspecified, using default values
  2649  2000EE                     	org	2097390
  2650  2000EE  FFFF               	dw	65535
  2651                           
  2652                           ;Config register IDLOC120 @ 0x2000F0
  2653                           ;	unspecified, using default values
  2654  2000F0                     	org	2097392
  2655  2000F0  FFFF               	dw	65535
  2656                           
  2657                           ;Config register IDLOC121 @ 0x2000F2
  2658                           ;	unspecified, using default values
  2659  2000F2                     	org	2097394
  2660  2000F2  FFFF               	dw	65535
  2661                           
  2662                           ;Config register IDLOC122 @ 0x2000F4
  2663                           ;	unspecified, using default values
  2664  2000F4                     	org	2097396
  2665  2000F4  FFFF               	dw	65535
  2666                           
  2667                           ;Config register IDLOC123 @ 0x2000F6
  2668                           ;	unspecified, using default values
  2669  2000F6                     	org	2097398
  2670  2000F6  FFFF               	dw	65535
  2671                           
  2672                           ;Config register IDLOC124 @ 0x2000F8
  2673                           ;	unspecified, using default values
  2674  2000F8                     	org	2097400
  2675  2000F8  FFFF               	dw	65535
  2676                           
  2677                           ;Config register IDLOC125 @ 0x2000FA
  2678                           ;	unspecified, using default values
  2679  2000FA                     	org	2097402
  2680  2000FA  FFFF               	dw	65535
  2681                           
  2682                           ;Config register IDLOC126 @ 0x2000FC
  2683                           ;	unspecified, using default values
  2684  2000FC                     	org	2097404
  2685  2000FC  FFFF               	dw	65535
  2686                           
  2687                           ;Config register IDLOC127 @ 0x2000FE
  2688                           ;	unspecified, using default values
  2689  2000FE                     	org	2097406
  2690  2000FE  FFFF               	dw	65535
  2691                           
  2692                           	psect	config
  2693                           
  2694                           ;Config register CONFIG1L @ 0x300000
  2695                           ;	External Oscillator mode Selection bits
  2696                           ;	FEXTOSC = OFF, Oscillator not enabled
  2697                           ;	Power-up default value for COSC bits
  2698                           ;	RSTOSC = HFINTOSC_64MHZ, HFINTOSC with HFFRQ = 64 MHz and CDIV = 1:1
  2699  300000                     	org	3145728
  2700  300000  8C                 	db	140
  2701                           
  2702                           ;Config register CONFIG1H @ 0x300001
  2703                           ;	Clock Out Enable bit
  2704                           ;	CLKOUTEN = OFF, CLKOUT function is disabled
  2705                           ;	Clock Switch Enable bit
  2706                           ;	CSWEN = ON, Writing to NOSC and NDIV is allowed
  2707                           ;	Fail-Safe Clock Monitor Enable bit
  2708                           ;	FCMEN = ON, Fail-Safe Clock Monitor enabled
  2709  300001                     	org	3145729
  2710  300001  FF                 	db	255
  2711                           
  2712                           ;Config register CONFIG2L @ 0x300002
  2713                           ;	Master Clear Enable bit
  2714                           ;	MCLRE = EXTMCLR, MCLR pin (RE3) is MCLR
  2715                           ;	Power-up Timer Enable bit
  2716                           ;	PWRTE = OFF, Power up timer disabled
  2717                           ;	Low-power BOR enable bit
  2718                           ;	LPBOREN = OFF, Low power BOR is disabled
  2719                           ;	Brown-out Reset Enable bits
  2720                           ;	BOREN = SBORDIS, Brown-out Reset enabled , SBOREN bit is ignored
  2721  300002                     	org	3145730
  2722  300002  FF                 	db	255
  2723                           
  2724                           ;Config register CONFIG2H @ 0x300003
  2725                           ;	Brown Out Reset Voltage selection bits
  2726                           ;	BORV = VBOR_190, Brown-out Reset Voltage (VBOR) set to 1.90V
  2727                           ;	ZCD Disable bit
  2728                           ;	ZCD = OFF, ZCD disabled. ZCD can be enabled by setting the ZCDSEN bit of ZCDCON
  2729                           ;	PPSLOCK bit One-Way Set Enable bit
  2730                           ;	PPS1WAY = ON, PPSLOCK bit can be cleared and set only once; PPS registers remain locke
      +                          d after one clear/set cycle
  2731                           ;	Stack Full/Underflow Reset Enable bit
  2732                           ;	STVREN = ON, Stack full/underflow will cause Reset
  2733                           ;	Extended Instruction Set Enable bit
  2734                           ;	XINST = OFF, Extended Instruction Set and Indexed Addressing Mode disabled
  2735  300003                     	org	3145731
  2736  300003  FF                 	db	255
  2737                           
  2738                           ;Config register CONFIG3L @ 0x300004
  2739                           ;	WDT Period Select bits
  2740                           ;	WDTCPS = WDTCPS_31, Divider ratio 1:65536; software control of WDTPS
  2741                           ;	WDT operating mode
  2742                           ;	WDTE = OFF, WDT Disabled
  2743  300004                     	org	3145732
  2744  300004  9F                 	db	159
  2745                           
  2746                           ;Config register CONFIG3H @ 0x300005
  2747                           ;	WDT Window Select bits
  2748                           ;	WDTCWS = WDTCWS_7, window always open (100%); software control; keyed access not requi
      +                          red
  2749                           ;	WDT input clock selector
  2750                           ;	WDTCCS = SC, Software Control
  2751  300005                     	org	3145733
  2752  300005  FF                 	db	255
  2753                           
  2754                           ;Config register CONFIG4L @ 0x300006
  2755                           ;	Write Protection Block 0
  2756                           ;	WRT0 = OFF, Block 0 (000800-001FFFh) not write-protected
  2757                           ;	Write Protection Block 1
  2758                           ;	WRT1 = OFF, Block 1 (002000-003FFFh) not write-protected
  2759                           ;	Write Protection Block 2
  2760                           ;	WRT2 = OFF, Block 2 (004000-005FFFh) not write-protected
  2761                           ;	Write Protection Block 3
  2762                           ;	WRT3 = OFF, Block 3 (006000-007FFFh) not write-protected
  2763  300006                     	org	3145734
  2764  300006  FF                 	db	255
  2765                           
  2766                           ;Config register CONFIG4H @ 0x300007
  2767                           ;	Configuration Register Write Protection bit
  2768                           ;	WRTC = OFF, Configuration registers (300000-30000Bh) not write-protected
  2769                           ;	Boot Block Write Protection bit
  2770                           ;	WRTB = OFF, Boot Block (000000-0007FFh) not write-protected
  2771                           ;	Data EEPROM Write Protection bit
  2772                           ;	WRTD = OFF, Data EEPROM not write-protected
  2773                           ;	Scanner Enable bit
  2774                           ;	SCANE = ON, Scanner module is available for use, SCANMD bit can control the module
  2775                           ;	Low Voltage Programming Enable bit
  2776                           ;	LVP = ON, Low voltage programming enabled. MCLR/VPP pin function is MCLR. MCLRE config
      +                          uration bit is ignored
  2777  300007                     	org	3145735
  2778  300007  FF                 	db	255
  2779                           
  2780                           ;Config register CONFIG5L @ 0x300008
  2781                           ;	UserNVM Program Memory Code Protection bit
  2782                           ;	CP = OFF, UserNVM code protection disabled
  2783                           ;	DataNVM Memory Code Protection bit
  2784                           ;	CPD = OFF, DataNVM code protection disabled
  2785  300008                     	org	3145736
  2786  300008  FF                 	db	255
  2787                           
  2788                           ;Config register CONFIG5H @ 0x300009
  2789                           ;	unspecified, using default values
  2790  300009                     	org	3145737
  2791  300009  FF                 	db	255
  2792                           
  2793                           ;Config register CONFIG6L @ 0x30000A
  2794                           ;	Table Read Protection Block 0
  2795                           ;	EBTR0 = OFF, Block 0 (000800-001FFFh) not protected from table reads executed in other
      +                           blocks
  2796                           ;	Table Read Protection Block 1
  2797                           ;	EBTR1 = OFF, Block 1 (002000-003FFFh) not protected from table reads executed in other
      +                           blocks
  2798                           ;	Table Read Protection Block 2
  2799                           ;	EBTR2 = OFF, Block 2 (004000-005FFFh) not protected from table reads executed in other
      +                           blocks
  2800                           ;	Table Read Protection Block 3
  2801                           ;	EBTR3 = OFF, Block 3 (006000-007FFFh) not protected from table reads executed in other
      +                           blocks
  2802  30000A                     	org	3145738
  2803  30000A  FF                 	db	255
  2804                           
  2805                           ;Config register CONFIG6H @ 0x30000B
  2806                           ;	Boot Block Table Read Protection bit
  2807                           ;	EBTRB = OFF, Boot Block (000000-0007FFh) not protected from table reads executed in ot
      +                          her blocks
  2808  30000B                     	org	3145739
  2809  30000B  FF                 	db	255
  2810                           tosu	equ	0xFFF
  2811                           tosh	equ	0xFFE
  2812                           tosl	equ	0xFFD
  2813                           stkptr	equ	0xFFC
  2814                           pclatu	equ	0xFFB
  2815                           pclath	equ	0xFFA
  2816                           pcl	equ	0xFF9
  2817                           tblptru	equ	0xFF8
  2818                           tblptrh	equ	0xFF7
  2819                           tblptrl	equ	0xFF6
  2820                           tablat	equ	0xFF5
  2821                           prodh	equ	0xFF4
  2822                           prodl	equ	0xFF3
  2823                           indf0	equ	0xFEF
  2824                           postinc0	equ	0xFEE
  2825                           postdec0	equ	0xFED
  2826                           preinc0	equ	0xFEC
  2827                           plusw0	equ	0xFEB
  2828                           fsr0h	equ	0xFEA
  2829                           fsr0l	equ	0xFE9
  2830                           wreg	equ	0xFE8
  2831                           indf1	equ	0xFE7
  2832                           postinc1	equ	0xFE6
  2833                           postdec1	equ	0xFE5
  2834                           preinc1	equ	0xFE4
  2835                           plusw1	equ	0xFE3
  2836                           fsr1h	equ	0xFE2
  2837                           fsr1l	equ	0xFE1
  2838                           bsr	equ	0xFE0
  2839                           indf2	equ	0xFDF
  2840                           postinc2	equ	0xFDE
  2841                           postdec2	equ	0xFDD
  2842                           preinc2	equ	0xFDC
  2843                           plusw2	equ	0xFDB
  2844                           fsr2h	equ	0xFDA
  2845                           fsr2l	equ	0xFD9
  2846                           status	equ	0xFD8

Data Sizes:
    Strings     0
    Constant    0
    Data        0
    BSS         0
    Persistent  22
    Stack       0

Auto Spaces:
    Space          Size  Autos    Used
    COMRAM           94      6      28
    BANK0           160      0       0
    BANK1           256      0       0
    BANK2           256      0       0
    BANK3           256      0       0
    BANK4           256      0       0
    BANK5           256      0       0
    BANK6           256      0       0
    BANK7           256      0       0

Pointer List with Targets:

    IOCEF2_SetInterruptHandler@InterruptHandler	PTR FTN()void  size(2) Largest target is 1
		 -> IOCEF2_DefaultInterruptHandler(), 

    IOCEF2_InterruptHandler	PTR FTN()void  size(2) Largest target is 1
		 -> Absolute function(), IOCEF2_DefaultInterruptHandler(), 

    IOCEF1_SetInterruptHandler@InterruptHandler	PTR FTN()void  size(2) Largest target is 1
		 -> IOCEF1_DefaultInterruptHandler(), 

    IOCEF1_InterruptHandler	PTR FTN()void  size(2) Largest target is 1
		 -> Absolute function(), IOCEF1_DefaultInterruptHandler(), 

    IOCEF0_SetInterruptHandler@InterruptHandler	PTR FTN()void  size(2) Largest target is 1
		 -> IOCEF0_DefaultInterruptHandler(), 

    IOCEF0_InterruptHandler	PTR FTN()void  size(2) Largest target is 1
		 -> Absolute function(), IOCEF0_DefaultInterruptHandler(), 

    IOCCF1_SetInterruptHandler@InterruptHandler	PTR FTN()void  size(2) Largest target is 1
		 -> IOCCF1_DefaultInterruptHandler(), 

    IOCCF1_InterruptHandler	PTR FTN()void  size(2) Largest target is 1
		 -> Absolute function(), IOCCF1_DefaultInterruptHandler(), 

    IOCCF0_SetInterruptHandler@InterruptHandler	PTR FTN()void  size(2) Largest target is 1
		 -> IOCCF0_DefaultInterruptHandler(), 

    IOCCF0_InterruptHandler	PTR FTN()void  size(2) Largest target is 1
		 -> Absolute function(), IOCCF0_DefaultInterruptHandler(), 

    IOCAF5_SetInterruptHandler@InterruptHandler	PTR FTN()void  size(2) Largest target is 1
		 -> IOCAF5_DefaultInterruptHandler(), 

    IOCAF5_InterruptHandler	PTR FTN()void  size(2) Largest target is 1
		 -> Absolute function(), IOCAF5_DefaultInterruptHandler(), 

    IOCAF4_SetInterruptHandler@InterruptHandler	PTR FTN()void  size(2) Largest target is 1
		 -> IOCAF4_DefaultInterruptHandler(), 

    IOCAF4_InterruptHandler	PTR FTN()void  size(2) Largest target is 1
		 -> Absolute function(), IOCAF4_DefaultInterruptHandler(), 

    IOCAF3_SetInterruptHandler@InterruptHandler	PTR FTN()void  size(2) Largest target is 1
		 -> IOCAF3_DefaultInterruptHandler(), 

    IOCAF3_InterruptHandler	PTR FTN()void  size(2) Largest target is 1
		 -> Absolute function(), IOCAF3_DefaultInterruptHandler(), 

    IOCAF2_SetInterruptHandler@InterruptHandler	PTR FTN()void  size(2) Largest target is 1
		 -> IOCAF2_DefaultInterruptHandler(), 

    IOCAF2_InterruptHandler	PTR FTN()void  size(2) Largest target is 1
		 -> Absolute function(), IOCAF2_DefaultInterruptHandler(), 

    IOCAF1_SetInterruptHandler@InterruptHandler	PTR FTN()void  size(2) Largest target is 1
		 -> IOCAF1_DefaultInterruptHandler(), 

    IOCAF1_InterruptHandler	PTR FTN()void  size(2) Largest target is 1
		 -> Absolute function(), IOCAF1_DefaultInterruptHandler(), 

    IOCAF0_SetInterruptHandler@InterruptHandler	PTR FTN()void  size(2) Largest target is 1
		 -> IOCAF0_DefaultInterruptHandler(), 

    IOCAF0_InterruptHandler	PTR FTN()void  size(2) Largest target is 1
		 -> Absolute function(), IOCAF0_DefaultInterruptHandler(), 


Critical Paths under _main in COMRAM

    _PIN_MANAGER_Initialize->_IOCAF0_SetInterruptHandler
    _PIN_MANAGER_Initialize->_IOCAF1_SetInterruptHandler
    _PIN_MANAGER_Initialize->_IOCAF2_SetInterruptHandler
    _PIN_MANAGER_Initialize->_IOCAF3_SetInterruptHandler
    _PIN_MANAGER_Initialize->_IOCAF4_SetInterruptHandler
    _PIN_MANAGER_Initialize->_IOCAF5_SetInterruptHandler
    _PIN_MANAGER_Initialize->_IOCCF0_SetInterruptHandler
    _PIN_MANAGER_Initialize->_IOCCF1_SetInterruptHandler
    _PIN_MANAGER_Initialize->_IOCEF0_SetInterruptHandler
    _PIN_MANAGER_Initialize->_IOCEF1_SetInterruptHandler
    _PIN_MANAGER_Initialize->_IOCEF2_SetInterruptHandler

Critical Paths under _INTERRUPT_InterruptManager in COMRAM

    None.

Critical Paths under _main in BANK0

    None.

Critical Paths under _INTERRUPT_InterruptManager in BANK0

    None.

Critical Paths under _main in BANK1

    None.

Critical Paths under _INTERRUPT_InterruptManager in BANK1

    None.

Critical Paths under _main in BANK2

    None.

Critical Paths under _INTERRUPT_InterruptManager in BANK2

    None.

Critical Paths under _main in BANK3

    None.

Critical Paths under _INTERRUPT_InterruptManager in BANK3

    None.

Critical Paths under _main in BANK4

    None.

Critical Paths under _INTERRUPT_InterruptManager in BANK4

    None.

Critical Paths under _main in BANK5

    None.

Critical Paths under _INTERRUPT_InterruptManager in BANK5

    None.

Critical Paths under _main in BANK6

    None.

Critical Paths under _INTERRUPT_InterruptManager in BANK6

    None.

Critical Paths under _main in BANK7

    None.

Critical Paths under _INTERRUPT_InterruptManager in BANK7

    None.

Call Graph Tables:

 ---------------------------------------------------------------------------------
 (Depth) Function   	        Calls       Base Space   Used Autos Params    Refs
 ---------------------------------------------------------------------------------
 (0) _main                                                 2     2      0    1078
                                              4 COMRAM     2     2      0
               _INTERRUPT_Initialize
                     _IOC_Initialize
                  _SYSTEM_Initialize
 ---------------------------------------------------------------------------------
 (1) _SYSTEM_Initialize                                    0     0      0    1078
              _OSCILLATOR_Initialize
             _PIN_MANAGER_Initialize
                     _PMD_Initialize
 ---------------------------------------------------------------------------------
 (2) _PMD_Initialize                                       0     0      0       0
 ---------------------------------------------------------------------------------
 (2) _PIN_MANAGER_Initialize                               0     0      0    1078
         _IOCAF0_SetInterruptHandler
         _IOCAF1_SetInterruptHandler
         _IOCAF2_SetInterruptHandler
         _IOCAF3_SetInterruptHandler
         _IOCAF4_SetInterruptHandler
         _IOCAF5_SetInterruptHandler
         _IOCCF0_SetInterruptHandler
         _IOCCF1_SetInterruptHandler
         _IOCEF0_SetInterruptHandler
         _IOCEF1_SetInterruptHandler
         _IOCEF2_SetInterruptHandler
 ---------------------------------------------------------------------------------
 (3) _IOCEF2_SetInterruptHandler                           2     0      2      98
                                              2 COMRAM     2     0      2
 ---------------------------------------------------------------------------------
 (3) _IOCEF1_SetInterruptHandler                           2     0      2      98
                                              2 COMRAM     2     0      2
 ---------------------------------------------------------------------------------
 (3) _IOCEF0_SetInterruptHandler                           2     0      2      98
                                              2 COMRAM     2     0      2
 ---------------------------------------------------------------------------------
 (3) _IOCCF1_SetInterruptHandler                           2     0      2      98
                                              2 COMRAM     2     0      2
 ---------------------------------------------------------------------------------
 (3) _IOCCF0_SetInterruptHandler                           2     0      2      98
                                              2 COMRAM     2     0      2
 ---------------------------------------------------------------------------------
 (3) _IOCAF5_SetInterruptHandler                           2     0      2      98
                                              2 COMRAM     2     0      2
 ---------------------------------------------------------------------------------
 (3) _IOCAF4_SetInterruptHandler                           2     0      2      98
                                              2 COMRAM     2     0      2
 ---------------------------------------------------------------------------------
 (3) _IOCAF3_SetInterruptHandler                           2     0      2      98
                                              2 COMRAM     2     0      2
 ---------------------------------------------------------------------------------
 (3) _IOCAF2_SetInterruptHandler                           2     0      2      98
                                              2 COMRAM     2     0      2
 ---------------------------------------------------------------------------------
 (3) _IOCAF1_SetInterruptHandler                           2     0      2      98
                                              2 COMRAM     2     0      2
 ---------------------------------------------------------------------------------
 (3) _IOCAF0_SetInterruptHandler                           2     0      2      98
                                              2 COMRAM     2     0      2
 ---------------------------------------------------------------------------------
 (2) _OSCILLATOR_Initialize                                0     0      0       0
 ---------------------------------------------------------------------------------
 (1) _IOC_Initialize                                       0     0      0       0
 ---------------------------------------------------------------------------------
 (1) _INTERRUPT_Initialize                                 0     0      0       0
 ---------------------------------------------------------------------------------
 Estimated maximum stack depth 3
 ---------------------------------------------------------------------------------
 (Depth) Function   	        Calls       Base Space   Used Autos Params    Refs
 ---------------------------------------------------------------------------------
 (4) _INTERRUPT_InterruptManager                           2     2      0       0
                                              0 COMRAM     2     2      0
                   _Local_IOCCF4_ISR
 ---------------------------------------------------------------------------------
 (5) _Local_IOCCF4_ISR                                     0     0      0       0
 ---------------------------------------------------------------------------------
 Estimated maximum stack depth 5
 ---------------------------------------------------------------------------------

 Call Graph Graphs:

 _main (ROOT)
   _INTERRUPT_Initialize
   _IOC_Initialize
   _SYSTEM_Initialize
     _OSCILLATOR_Initialize
     _PIN_MANAGER_Initialize
       _IOCAF0_SetInterruptHandler
       _IOCAF1_SetInterruptHandler
       _IOCAF2_SetInterruptHandler
       _IOCAF3_SetInterruptHandler
       _IOCAF4_SetInterruptHandler
       _IOCAF5_SetInterruptHandler
       _IOCCF0_SetInterruptHandler
       _IOCCF1_SetInterruptHandler
       _IOCEF0_SetInterruptHandler
       _IOCEF1_SetInterruptHandler
       _IOCEF2_SetInterruptHandler
     _PMD_Initialize

 _INTERRUPT_InterruptManager (ROOT)
   _Local_IOCCF4_ISR

 Address spaces:
Name               Size   Autos  Total    Cost      Usage
BITCOMRAM           5E      0       0       0        0.0%
EEDATA             100      0       0       0        0.0%
NULL                 0      0       0       0        0.0%
CODE                 0      0       0       0        0.0%
COMRAM              5E      6      1C       1       29.8%
STACK                0      0       0       2        0.0%
ABS                  0      0      1C       3        0.0%
DATA                 0      0      1C       4        0.0%
BITBANK0            A0      0       0       5        0.0%
BANK0               A0      0       0       6        0.0%
BITBANK1           100      0       0       7        0.0%
BANK1              100      0       0       8        0.0%
BITBANK2           100      0       0       9        0.0%
BANK2              100      0       0      10        0.0%
BITBANK3           100      0       0      11        0.0%
BANK3              100      0       0      12        0.0%
BITBANK4           100      0       0      13        0.0%
BANK4              100      0       0      14        0.0%
BITBANK5           100      0       0      15        0.0%
BANK5              100      0       0      16        0.0%
BITBANK6           100      0       0      17        0.0%
BANK6              100      0       0      18        0.0%
BITBANK7           100      0       0      19        0.0%
BANK7              100      0       0      20        0.0%
BIGRAM             7FF      0       0      21        0.0%
BITSFR_3             0      0       0     200        0.0%
SFR_3                0      0       0     200        0.0%
BITSFR_2             0      0       0     200        0.0%
SFR_2                0      0       0     200        0.0%
BITSFR_1             0      0       0     200        0.0%
SFR_1                0      0       0     200        0.0%
BITSFR               0      0       0     200        0.0%
SFR                  0      0       0     200        0.0%


Microchip Technology PIC18 Macro Assembler V2.31 build 20201012212115 
Symbol Table                                                                                   Sun Dec 04 20:10:43 2022

                                        l31 03FA                                          l34 03CA  
                                        l37 03B2                                         l216 033A  
                                       l307 0422                                         l237 0468  
                                       l317 0418                                         l247 045E  
                                       l327 040E                                         l257 0454  
                                       l337 0404                                         l371 0476  
                                       l267 044A                                         l277 0440  
                                       l287 0436                                         l377 0470  
                                       l297 042C                                         _RD2 007C7A  
                                       u507 0368                                         u517 0382  
                   __size_of_PMD_Initialize 001C                                         wreg 000FE8  
        __end_of_IOCAF2_SetInterruptHandler 0456                  _IOCAF2_SetInterruptHandler 044C  
        __end_of_IOCAF5_SetInterruptHandler 0438                  _IOCAF5_SetInterruptHandler 042E  
        __end_of_IOCCF0_SetInterruptHandler 042E                  _IOCCF0_SetInterruptHandler 0424  
        __end_of_IOCEF1_SetInterruptHandler 0410                  _IOCEF1_SetInterruptHandler 0406  
                                      l1122 0398                                        l1250 046A  
                                      l1246 0472                                        l1238 03B4  
                                      l1600 0292                                        l1522 0460  
                                      l1530 0438                                        l1610 029C  
                                      l1602 0294                                        l1524 0456  
                                      l1532 042E                                        l1540 0406  
                                      l1620 02A6                                        l1612 029E  
                                      l1604 0296                                        l1526 044C  
                                      l1534 0424                                        l1542 03FC  
                                      l1630 02B0                                        l1622 02A8  
                                      l1614 02A0                                        l1606 0298  
                                      l1550 021A                                        l1528 0442  
                                      l1536 041A                                        l1640 02CE  
                                      l1632 02B2                                        l1624 02AA  
                                      l1616 02A2                                        l1608 029A  
                                      l1560 0262                                        l1552 022A  
                                      l1544 01FE                                        l1538 0410  
                                      l1650 030A                                        l1642 02DA  
                                      l1634 02B4                                        l1626 02AC  
                                      l1618 02A4                                        l1570 0274  
                                      l1562 0268                                        l1554 025C  
                                      l1546 0216                                        l1652 0316  
                                      l1644 02E6                                        l1636 02B6  
                                      l1628 02AE                                        l1580 027E  
                                      l1572 0276                                        l1564 026A  
                                      l1556 025E                                        l1548 0218  
                                      l1660 03F2                                        l1654 0322  
                                      l1646 02F2                                        l1638 02C2  
                                      l1590 0288                                        l1582 0280  
                                      l1574 0278                                        l1566 026C  
                                      l1558 0260                                        l1662 03F6  
                                      l1670 0348                                        l1656 032E  
                                      l1648 02FE                                        l1592 028A  
                                      l1584 0282                                        l1576 027A  
                                      l1568 026E                                        l1680 0352  
                                      l1672 034A                                        l1664 033C  
                                      l1594 028C                                        l1586 0284  
                                      l1578 027C                                        l1658 03EE  
                                      l1690 035C                                        l1682 0354  
                                      l1674 034C                                        l1666 0340  
                                      l1596 028E                                        l1588 0286  
                                      l1692 035E                                        l1684 0356  
                                      l1676 034E                                        l1668 0344  
                                      l1598 0290                                        l1694 0376  
                                      l1686 0358                                        l1678 0350  
                                      l1696 0378                                        l1688 035A  
                                      _LATA 000F82                                        _LATB 000F83  
                                      _LATC 000F84                                        _LATD 000F85  
                                      _LATE 000F86                                        _PMD0 000EDC  
                                      _PMD1 000EDD                                        _PMD2 000EDE  
                                      _PMD3 000EDF                                        _PMD4 000EE0  
                                      _PMD5 000EE1                                        _WPUA 000F0B  
                                      _WPUB 000F13                                        _WPUC 000F1B  
                                      _WPUD 000F20                                        _WPUE 000F28  
                                      _main 033C                                        btemp 001D  
            _IOCEF2_DefaultInterruptHandler 000000                                        start 01FA  
                              ___param_bank 000000              __size_of_OSCILLATOR_Initialize 0018  
             __end_of_OSCILLATOR_Initialize 03CC                                       ?_main 0017  
                                     i2l401 0106                                       i2l402 010C  
                                     i2l411 0192                                       i2l403 0112  
                                     i2l412 0198                                       i2l405 014A  
                                     i2l414 01CC                                       i2l406 015A  
                                     i2l415 01DC                                       i2l407 016A  
                                     i2l374 03DE                                       i2l390 003E  
                                     i2l382 00F2                                       i2l392 008E  
                                     i2l384 0020                                       i2l393 009E  
                                     i2l385 01F6                                       i2l394 00AE  
                                     i2l386 0026                                       i2l395 00BE  
                                     i2l387 002C                                       i2l396 00CE  
                                     i2l388 0032                                       i2l397 00DE  
                                     i2l389 0038                                       i2l399 017E  
                                     _OSCEN 000ED7                                       _PORTD 000F8F  
                                     _TRISA 000F87                                       _TRISB 000F88  
                                     _TRISC 000F89                                       _TRISD 000F8A  
                                     _TRISE 000F8B                                       ttemp5 001E  
                                     ttemp6 0021                                       ttemp7 0025  
                                     status 000FD8                                       wtemp8 001E  
                         ?_Local_IOCCF4_ISR 0017                             __initialization 03E0  
                              __end_of_main 0398                          ??_Local_IOCCF4_ISR 0017  
               ?_INTERRUPT_InterruptManager 0017                                      ??_main 001B  
                             __activetblptr 000002                     _IOCAF4_InterruptHandler 000D  
                   _IOCEF0_InterruptHandler 0005                ??_IOCAF0_SetInterruptHandler 001B  
              ??_IOCAF3_SetInterruptHandler 001B                ??_IOCCF1_SetInterruptHandler 001B  
                                    _ANSELA 000F0C                                      _ANSELB 000F14  
                                    _ANSELC 000F1C                                      _ANSELD 000F21  
                                    _ANSELE 000F29                ??_IOCEF2_SetInterruptHandler 001B  
                                    _ODCONA 000F0A                                      _ODCONB 000F12  
                                    _ODCONC 000F1A                                      _ODCOND 000F1F  
                                    _ODCONE 000F27                                      i2l1400 019A  
                                    i2l1410 01EA                                      i2l1412 01EC  
                                    i2l1414 01F0                                      i2l1406 01A2  
                                    i2l1248 03CC                                      i2l1408 01DA  
                                    i2l1370 009C                                      i2l1362 000A  
                                    i2l1380 00EC                                      i2l1372 00AC  
                                    i2l1390 0158                                      i2l1382 00EE  
                                    i2l1374 00BC                                      i2l1392 0168  
                                    i2l1376 00CC                                      i2l1368 0044  
                                    i2l1394 0178                                      i2l1378 00DC  
                                    i2l1396 017A                                      i2l1388 0118  
                                    i2l1760 012C                                      i2l1762 01B6  
                                    i2l1758 0058                                      _INLVLA 000F08  
                                    _INLVLB 000F10                                      _INLVLC 000F18  
                                    _INLVLD 000F1D                                      _INLVLE 000F25  
                   __size_of_IOC_Initialize 0006                                      _OSCFRQ 000ED9  
                                    i2u1_40 03DC                                      i2u1_41 03D6  
                                    i2u2_45 03DE         __size_of_IOCAF0_SetInterruptHandler 000A  
       __size_of_IOCAF3_SetInterruptHandler 000A         __size_of_IOCCF1_SetInterruptHandler 000A  
       __size_of_IOCEF2_SetInterruptHandler 000A                              _PMD_Initialize 0398  
                                    tblptru 000FF8  IOCEF2_SetInterruptHandler@InterruptHandler 0019  
IOCEF1_SetInterruptHandler@InterruptHandler 0019  IOCEF0_SetInterruptHandler@InterruptHandler 0019  
IOCCF1_SetInterruptHandler@InterruptHandler 0019  IOCCF0_SetInterruptHandler@InterruptHandler 0019  
IOCAF5_SetInterruptHandler@InterruptHandler 0019  IOCAF4_SetInterruptHandler@InterruptHandler 0019  
IOCAF3_SetInterruptHandler@InterruptHandler 0019  IOCAF2_SetInterruptHandler@InterruptHandler 0019  
IOCAF1_SetInterruptHandler@InterruptHandler 0019  IOCAF0_SetInterruptHandler@InterruptHandler 0019  
             __size_of_INTERRUPT_Initialize 0008                           _SYSTEM_Initialize 03EE  
                                __accesstop 0060                     __end_of__initialization 03E0  
            _IOCAF1_DefaultInterruptHandler 000000                          ?_SYSTEM_Initialize 0017  
                             ___rparam_used 000001                              __pcstackCOMRAM 0017  
                       ??_SYSTEM_Initialize 001B              _IOCAF4_DefaultInterruptHandler 000000  
                    __end_of_PMD_Initialize 03B4                 ?_IOCAF2_SetInterruptHandler 0019  
               ?_IOCAF5_SetInterruptHandler 0019                 ?_IOCCF0_SetInterruptHandler 0019  
                 __end_of_SYSTEM_Initialize 03FC                 ?_IOCEF1_SetInterruptHandler 0019  
                                __pnvCOMRAM 0001                     _IOCAF5_InterruptHandler 000B  
                   _IOCEF1_InterruptHandler 0003                             ?_PMD_Initialize 0017  
        __end_of_IOCAF0_SetInterruptHandler 046A                  _IOCAF0_SetInterruptHandler 0460  
        __end_of_IOCAF3_SetInterruptHandler 044C                  _IOCAF3_SetInterruptHandler 0442  
                                   _OSCCON1 000ED3                                     _OSCCON3 000ED5  
                                   i2u40_40 00CC                                     i2u40_41 00C8  
                                   i2u41_40 00DC                                     i2u41_41 00D8  
                                   i2u42_40 00EC                                     i2u42_41 00E8  
                                   i2u43_40 0102                                     i2u43_41 00FE  
                                   i2u44_40 0158                                     i2u36_40 001C  
        __end_of_IOCCF1_SetInterruptHandler 0424                  _IOCCF1_SetInterruptHandler 041A  
                                   i2u44_41 0154                                     i2u36_41 0018  
                                   i2u45_40 0168                                     i2u37_40 009C  
                                   i2u45_41 0164                                     i2u37_41 0098  
                                   i2u46_40 0178                                     i2u38_40 00AC  
                                   i2u46_41 0174                                     i2u38_41 00A8  
                                   _OSCTUNE 000ED8                                     i2u47_40 018E  
                                   i2u39_40 00BC                                     i2u47_41 018A  
                                   i2u39_41 00B8                                     i2u48_40 01DA  
                                   i2u48_41 01D6                                     i2u49_40 01EA  
                                   i2u49_41 01E6                                     _SLRCONA 000F09  
                                   _SLRCONB 000F11                                     _SLRCONC 000F19  
                                   _SLRCOND 000F1E                                     _SLRCONE 000F26  
        __end_of_IOCEF2_SetInterruptHandler 0406                  _IOCEF2_SetInterruptHandler 03FC  
            _IOCEF0_DefaultInterruptHandler 000000                              _IOC_Initialize 0472  
                                   __Hparam 0000                                     __Lparam 0000  
                                   __pcinit 03E0                                     __ramtop 0800  
                                   __ptext0 033C                                     __ptext1 03EE  
                                   __ptext2 0398                                     __ptext3 01FE  
                                   __ptext4 03FC                                     __ptext5 0406  
                                   __ptext6 0410                                     __ptext7 041A  
                                   __ptext8 0424                                     __ptext9 042E  
                     _OSCILLATOR_Initialize 03B4                   __size_of_Local_IOCCF4_ISR 0014  
                  ??_PIN_MANAGER_Initialize 001B                                   _IOCAFbits 000F05  
                                 _IOCCFbits 000F15                                   _IOCANbits 000F06  
                                 _IOCEFbits 000F22                                   _IOCAPbits 000F07  
                                 _IOCCNbits 000F16                                   _IOCCPbits 000F17  
                                 _IOCENbits 000F23                                   _IOCEPbits 000F24  
                    __end_of_IOC_Initialize 0478                  __size_of_SYSTEM_Initialize 000E  
                      end_of_initialization 03E0                               __Lmediumconst 0000  
                   _IOCAF0_InterruptHandler 0015                     _IOCEF2_InterruptHandler 0001  
              ??_IOCAF1_SetInterruptHandler 001B                ??_IOCAF4_SetInterruptHandler 001B  
                           ?_IOC_Initialize 0017                ??_IOCEF0_SetInterruptHandler 001B  
              __end_of_INTERRUPT_Initialize 0472         __size_of_IOCAF1_SetInterruptHandler 000A  
       __size_of_IOCAF4_SetInterruptHandler 000A                      ?_OSCILLATOR_Initialize 0017  
       __size_of_IOCEF0_SetInterruptHandler 000A                         start_initialization 03E0  
           __size_of_PIN_MANAGER_Initialize 013E              _IOCAF2_DefaultInterruptHandler 000000  
                          ??_PMD_Initialize 0019              _IOCAF5_DefaultInterruptHandler 000000  
                          _Local_IOCCF4_ISR 03CC                 ?_IOCAF0_SetInterruptHandler 0019  
               ?_IOCAF3_SetInterruptHandler 0019                 ?_IOCCF1_SetInterruptHandler 0019  
               ?_IOCEF2_SetInterruptHandler 0019              _IOCCF0_DefaultInterruptHandler 000000  
                   _IOCAF1_InterruptHandler 0013                      _PIN_MANAGER_Initialize 01FE  
                                 __pintcode 0008                ??_INTERRUPT_InterruptManager 0017  
        __end_of_IOCAF1_SetInterruptHandler 0460                  _IOCAF1_SetInterruptHandler 0456  
        __end_of_IOCAF4_SetInterruptHandler 0442                  _IOCAF4_SetInterruptHandler 0438  
        __end_of_IOCEF0_SetInterruptHandler 041A                  _IOCEF0_SetInterruptHandler 0410  
                      _INTERRUPT_Initialize 046A              _IOCEF1_DefaultInterruptHandler 000000  
                                  _PIE0bits 000EBD         __size_of_INTERRUPT_InterruptManager 01F2  
                          ??_IOC_Initialize 0019                       ?_INTERRUPT_Initialize 0017  
                            _IOCAFbits_Data 000F05                                    __Hrparam 0000  
                                  __Lrparam 0000                     ??_OSCILLATOR_Initialize 0019  
                            _IOCBFbits_Data 000F0D                              _IOCCFbits_Data 000F15  
                   _IOCAF2_InterruptHandler 0011                     _IOCCF0_InterruptHandler 0009  
              ??_IOCAF2_SetInterruptHandler 001B                                    __ptext10 0438  
                                  __ptext11 0442                                    __ptext12 044C  
                                  __ptext13 0456                                    __ptext14 0460  
                                  __ptext15 03B4                                    __ptext16 0472  
                                  __ptext17 046A                                    __ptext19 03CC  
              ??_IOCAF5_SetInterruptHandler 001B                ??_IOCCF0_SetInterruptHandler 001B  
              ??_IOCEF1_SetInterruptHandler 001B                               __size_of_main 005C  
                            _IOCEFbits_Data 000F22                    __end_of_Local_IOCCF4_ISR 03E0  
                                  int$flags 001D          __end_of_INTERRUPT_InterruptManager 01FA  
                _INTERRUPT_InterruptManager 0008         __size_of_IOCAF2_SetInterruptHandler 000A  
       __size_of_IOCAF5_SetInterruptHandler 000A         __size_of_IOCCF0_SetInterruptHandler 000A  
       __size_of_IOCEF1_SetInterruptHandler 000A                                  _INTCONbits 000FF2  
                    ??_INTERRUPT_Initialize 0019                                    intlevel2 0000  
            _IOCAF0_DefaultInterruptHandler 000000                     ?_PIN_MANAGER_Initialize 0017  
            _IOCAF3_DefaultInterruptHandler 000000                 ?_IOCAF1_SetInterruptHandler 0019  
               ?_IOCAF4_SetInterruptHandler 0019                 ?_IOCEF0_SetInterruptHandler 0019  
            __end_of_PIN_MANAGER_Initialize 033C              _IOCCF1_DefaultInterruptHandler 000000  
                   _IOCAF3_InterruptHandler 000F                     _IOCCF1_InterruptHandler 0007  
